

Microchip MPLAB XC8 Assembler V2.41 build 20230208172133 
                                                                                               Fri Nov 03 22:06:18 2023

Microchip MPLAB XC8 C Compiler v2.41 (Free license) build 20230208172133 Og1 
     1                           	processor	16F887
     2                           	pagewidth 120
     3                           	opt	flic
     4                           	psect	idataBANK3,global,class=CODE,delta=2,noexec
     5                           	psect	strings,global,class=STRING,delta=2,noexec
     6                           	psect	cinit,global,class=CODE,merge=1,delta=2
     7                           	psect	bssCOMMON,global,class=COMMON,space=1,delta=1,noexec
     8                           	psect	bssBANK0,global,class=BANK0,space=1,delta=1,noexec
     9                           	psect	bssBANK1,global,class=BANK1,space=1,delta=1,noexec
    10                           	psect	bssBANK3,global,class=BANK3,space=1,delta=1,noexec
    11                           	psect	dataBANK3,global,class=BANK3,space=1,delta=1,noexec
    12                           	psect	inittext,global,class=CODE,delta=2
    13                           	psect	clrtext,global,class=CODE,delta=2
    14                           	psect	cstackBANK1,global,class=BANK1,space=1,delta=1,noexec
    15                           	psect	cstackCOMMON,global,class=COMMON,space=1,delta=1,noexec
    16                           	psect	cstackBANK0,global,class=BANK0,space=1,delta=1,noexec
    17                           	psect	maintext,global,class=CODE,split=1,delta=2
    18                           	psect	text1,local,class=CODE,merge=1,delta=2
    19                           	psect	text2,local,class=CODE,merge=1,delta=2
    20                           	psect	text3,local,class=CODE,merge=1,delta=2
    21                           	psect	text4,local,class=CODE,merge=1,delta=2
    22                           	psect	text5,local,class=CODE,merge=1,delta=2
    23                           	psect	text6,local,class=CODE,merge=1,delta=2,group=3
    24                           	psect	text7,local,class=CODE,merge=1,delta=2
    25                           	psect	text8,local,class=CODE,merge=1,delta=2
    26                           	psect	text9,local,class=CODE,merge=1,delta=2
    27                           	psect	text10,local,class=CODE,merge=1,delta=2,group=1
    28                           	psect	text11,local,class=CODE,merge=1,delta=2,group=2
    29                           	psect	text12,local,class=CODE,merge=1,delta=2,group=2
    30                           	psect	text13,local,class=CODE,merge=1,delta=2,group=3
    31                           	psect	text14,local,class=CODE,merge=1,delta=2,group=3
    32                           	psect	text15,local,class=CODE,merge=1,delta=2,group=2
    33                           	psect	text16,local,class=CODE,merge=1,delta=2,group=3
    34                           	psect	text17,local,class=CODE,merge=1,delta=2,group=2
    35                           	psect	text18,local,class=CODE,merge=1,delta=2,group=2
    36                           	psect	text19,local,class=CODE,merge=1,delta=2,group=2
    37                           	psect	text20,local,class=CODE,merge=1,delta=2,group=2
    38                           	psect	text21,local,class=CODE,merge=1,delta=2,group=2
    39                           	psect	text22,local,class=CODE,merge=1,delta=2,group=2
    40                           	psect	text23,local,class=CODE,merge=1,delta=2,group=2
    41                           	psect	text24,local,class=CODE,merge=1,delta=2
    42                           	psect	text25,local,class=CODE,merge=1,delta=2
    43                           	psect	text26,local,class=CODE,merge=1,delta=2
    44                           	psect	text27,local,class=CODE,merge=1,delta=2
    45                           	psect	text28,local,class=CODE,merge=1,delta=2
    46                           	psect	text29,local,class=CODE,merge=1,delta=2
    47                           	psect	text30,local,class=CODE,merge=1,delta=2
    48                           	psect	text31,local,class=CODE,merge=1,delta=2
    49                           	psect	text32,local,class=CODE,merge=1,delta=2
    50                           	psect	text33,local,class=CODE,merge=1,delta=2
    51                           	psect	intentry,global,class=CODE,delta=2
    52                           	psect	config,global,abs,ovrld,class=CONFIG,space=4,delta=2,noexec
    53                           	dabs	1,0x7E,2
    54     0000                     
    55                           ; Version 2.40
    56                           ; Generated 17/11/2021 GMT
    57                           ; 
    58                           ; Copyright © 2021, Microchip Technology Inc. and its subsidiaries ("Microchip")
    59                           ; All rights reserved.
    60                           ; 
    61                           ; This software is developed by Microchip Technology Inc. and its subsidiaries ("Microch
      +                          ip").
    62                           ; 
    63                           ; Redistribution and use in source and binary forms, with or without modification, are
    64                           ; permitted provided that the following conditions are met:
    65                           ; 
    66                           ;     1. Redistributions of source code must retain the above copyright notice, this lis
      +                          t of
    67                           ;        conditions and the following disclaimer.
    68                           ; 
    69                           ;     2. Redistributions in binary form must reproduce the above copyright notice, this 
      +                          list
    70                           ;        of conditions and the following disclaimer in the documentation and/or other
    71                           ;        materials provided with the distribution. Publication is not required when
    72                           ;        this file is used in an embedded application.
    73                           ; 
    74                           ;     3. Microchip's name may not be used to endorse or promote products derived from th
      +                          is
    75                           ;        software without specific prior written permission.
    76                           ; 
    77                           ; THIS SOFTWARE IS PROVIDED BY MICROCHIP "AS IS" AND ANY EXPRESS OR IMPLIED WARRANTIES,
    78                           ; INCLUDING, BUT NOT LIMITED TO, THE IMPLIED WARRANTIES OF MERCHANTABILITY AND FITNESS F
      +                          OR
    79                           ; PURPOSE ARE DISCLAIMED.  IN NO EVENT SHALL MICROCHIP BE LIABLE FOR ANY DIRECT, INDIREC
      +                          T,
    80                           ; INCIDENTAL, SPECIAL, EXEMPLARY, OR CONSEQUENTIAL DAMAGES (INCLUDING BUT NOT LIMITED TO
    81                           ; PROCUREMENT OF SUBSTITUTE GOODS OR SERVICES; LOSS OF USE, DATA OR PROFITS; OR BUSINESS
    82                           ; INTERRUPTION) HOWSOEVER CAUSED AND ON ANY THEORY OF LIABILITY, WHETHER IN CONTRACT, ST
      +                          RICT
    83                           ; LIABILITY, OR TORT (INCLUDING NEGLIGENCE OR OTHERWISE) ARISING IN ANY WAY OUT OF THE U
      +                          SE OF
    84                           ; THIS SOFTWARE, EVEN IF ADVISED OF THE POSSIBILITY OF SUCH DAMAGE.
    85                           ; 
    86                           ; 
    87                           ; Code-generator required, PIC16F887 Definitions
    88                           ; 
    89                           ; SFR Addresses
    90     0000                     	;# 
    91     0001                     	;# 
    92     0002                     	;# 
    93     0003                     	;# 
    94     0004                     	;# 
    95     0005                     	;# 
    96     0006                     	;# 
    97     0007                     	;# 
    98     0008                     	;# 
    99     0009                     	;# 
   100     000A                     	;# 
   101     000B                     	;# 
   102     000C                     	;# 
   103     000D                     	;# 
   104     000E                     	;# 
   105     000E                     	;# 
   106     000F                     	;# 
   107     0010                     	;# 
   108     0011                     	;# 
   109     0012                     	;# 
   110     0013                     	;# 
   111     0014                     	;# 
   112     0015                     	;# 
   113     0015                     	;# 
   114     0016                     	;# 
   115     0017                     	;# 
   116     0018                     	;# 
   117     0019                     	;# 
   118     001A                     	;# 
   119     001B                     	;# 
   120     001B                     	;# 
   121     001C                     	;# 
   122     001D                     	;# 
   123     001E                     	;# 
   124     001F                     	;# 
   125     0081                     	;# 
   126     0085                     	;# 
   127     0086                     	;# 
   128     0087                     	;# 
   129     0088                     	;# 
   130     0089                     	;# 
   131     008C                     	;# 
   132     008D                     	;# 
   133     008E                     	;# 
   134     008F                     	;# 
   135     0090                     	;# 
   136     0091                     	;# 
   137     0092                     	;# 
   138     0093                     	;# 
   139     0093                     	;# 
   140     0093                     	;# 
   141     0094                     	;# 
   142     0095                     	;# 
   143     0096                     	;# 
   144     0097                     	;# 
   145     0098                     	;# 
   146     0099                     	;# 
   147     009A                     	;# 
   148     009B                     	;# 
   149     009C                     	;# 
   150     009D                     	;# 
   151     009E                     	;# 
   152     009F                     	;# 
   153     0105                     	;# 
   154     0107                     	;# 
   155     0108                     	;# 
   156     0109                     	;# 
   157     010C                     	;# 
   158     010C                     	;# 
   159     010D                     	;# 
   160     010E                     	;# 
   161     010F                     	;# 
   162     0185                     	;# 
   163     0187                     	;# 
   164     0188                     	;# 
   165     0189                     	;# 
   166     018C                     	;# 
   167     018D                     	;# 
   168     0000                     	;# 
   169     0001                     	;# 
   170     0002                     	;# 
   171     0003                     	;# 
   172     0004                     	;# 
   173     0005                     	;# 
   174     0006                     	;# 
   175     0007                     	;# 
   176     0008                     	;# 
   177     0009                     	;# 
   178     000A                     	;# 
   179     000B                     	;# 
   180     000C                     	;# 
   181     000D                     	;# 
   182     000E                     	;# 
   183     000E                     	;# 
   184     000F                     	;# 
   185     0010                     	;# 
   186     0011                     	;# 
   187     0012                     	;# 
   188     0013                     	;# 
   189     0014                     	;# 
   190     0015                     	;# 
   191     0015                     	;# 
   192     0016                     	;# 
   193     0017                     	;# 
   194     0018                     	;# 
   195     0019                     	;# 
   196     001A                     	;# 
   197     001B                     	;# 
   198     001B                     	;# 
   199     001C                     	;# 
   200     001D                     	;# 
   201     001E                     	;# 
   202     001F                     	;# 
   203     0081                     	;# 
   204     0085                     	;# 
   205     0086                     	;# 
   206     0087                     	;# 
   207     0088                     	;# 
   208     0089                     	;# 
   209     008C                     	;# 
   210     008D                     	;# 
   211     008E                     	;# 
   212     008F                     	;# 
   213     0090                     	;# 
   214     0091                     	;# 
   215     0092                     	;# 
   216     0093                     	;# 
   217     0093                     	;# 
   218     0093                     	;# 
   219     0094                     	;# 
   220     0095                     	;# 
   221     0096                     	;# 
   222     0097                     	;# 
   223     0098                     	;# 
   224     0099                     	;# 
   225     009A                     	;# 
   226     009B                     	;# 
   227     009C                     	;# 
   228     009D                     	;# 
   229     009E                     	;# 
   230     009F                     	;# 
   231     0105                     	;# 
   232     0107                     	;# 
   233     0108                     	;# 
   234     0109                     	;# 
   235     010C                     	;# 
   236     010C                     	;# 
   237     010D                     	;# 
   238     010E                     	;# 
   239     010F                     	;# 
   240     0185                     	;# 
   241     0187                     	;# 
   242     0188                     	;# 
   243     0189                     	;# 
   244     018C                     	;# 
   245     018D                     	;# 
   246     0000                     	;# 
   247     0001                     	;# 
   248     0002                     	;# 
   249     0003                     	;# 
   250     0004                     	;# 
   251     0005                     	;# 
   252     0006                     	;# 
   253     0007                     	;# 
   254     0008                     	;# 
   255     0009                     	;# 
   256     000A                     	;# 
   257     000B                     	;# 
   258     000C                     	;# 
   259     000D                     	;# 
   260     000E                     	;# 
   261     000E                     	;# 
   262     000F                     	;# 
   263     0010                     	;# 
   264     0011                     	;# 
   265     0012                     	;# 
   266     0013                     	;# 
   267     0014                     	;# 
   268     0015                     	;# 
   269     0015                     	;# 
   270     0016                     	;# 
   271     0017                     	;# 
   272     0018                     	;# 
   273     0019                     	;# 
   274     001A                     	;# 
   275     001B                     	;# 
   276     001B                     	;# 
   277     001C                     	;# 
   278     001D                     	;# 
   279     001E                     	;# 
   280     001F                     	;# 
   281     0081                     	;# 
   282     0085                     	;# 
   283     0086                     	;# 
   284     0087                     	;# 
   285     0088                     	;# 
   286     0089                     	;# 
   287     008C                     	;# 
   288     008D                     	;# 
   289     008E                     	;# 
   290     008F                     	;# 
   291     0090                     	;# 
   292     0091                     	;# 
   293     0092                     	;# 
   294     0093                     	;# 
   295     0093                     	;# 
   296     0093                     	;# 
   297     0094                     	;# 
   298     0095                     	;# 
   299     0096                     	;# 
   300     0097                     	;# 
   301     0098                     	;# 
   302     0099                     	;# 
   303     009A                     	;# 
   304     009B                     	;# 
   305     009C                     	;# 
   306     009D                     	;# 
   307     009E                     	;# 
   308     009F                     	;# 
   309     0105                     	;# 
   310     0107                     	;# 
   311     0108                     	;# 
   312     0109                     	;# 
   313     010C                     	;# 
   314     010C                     	;# 
   315     010D                     	;# 
   316     010E                     	;# 
   317     010F                     	;# 
   318     0185                     	;# 
   319     0187                     	;# 
   320     0188                     	;# 
   321     0189                     	;# 
   322     018C                     	;# 
   323     018D                     	;# 
   324     0000                     	;# 
   325     0001                     	;# 
   326     0002                     	;# 
   327     0003                     	;# 
   328     0004                     	;# 
   329     0005                     	;# 
   330     0006                     	;# 
   331     0007                     	;# 
   332     0008                     	;# 
   333     0009                     	;# 
   334     000A                     	;# 
   335     000B                     	;# 
   336     000C                     	;# 
   337     000D                     	;# 
   338     000E                     	;# 
   339     000E                     	;# 
   340     000F                     	;# 
   341     0010                     	;# 
   342     0011                     	;# 
   343     0012                     	;# 
   344     0013                     	;# 
   345     0014                     	;# 
   346     0015                     	;# 
   347     0015                     	;# 
   348     0016                     	;# 
   349     0017                     	;# 
   350     0018                     	;# 
   351     0019                     	;# 
   352     001A                     	;# 
   353     001B                     	;# 
   354     001B                     	;# 
   355     001C                     	;# 
   356     001D                     	;# 
   357     001E                     	;# 
   358     001F                     	;# 
   359     0081                     	;# 
   360     0085                     	;# 
   361     0086                     	;# 
   362     0087                     	;# 
   363     0088                     	;# 
   364     0089                     	;# 
   365     008C                     	;# 
   366     008D                     	;# 
   367     008E                     	;# 
   368     008F                     	;# 
   369     0090                     	;# 
   370     0091                     	;# 
   371     0092                     	;# 
   372     0093                     	;# 
   373     0093                     	;# 
   374     0093                     	;# 
   375     0094                     	;# 
   376     0095                     	;# 
   377     0096                     	;# 
   378     0097                     	;# 
   379     0098                     	;# 
   380     0099                     	;# 
   381     009A                     	;# 
   382     009B                     	;# 
   383     009C                     	;# 
   384     009D                     	;# 
   385     009E                     	;# 
   386     009F                     	;# 
   387     0105                     	;# 
   388     0107                     	;# 
   389     0108                     	;# 
   390     0109                     	;# 
   391     010C                     	;# 
   392     010C                     	;# 
   393     010D                     	;# 
   394     010E                     	;# 
   395     010F                     	;# 
   396     0185                     	;# 
   397     0187                     	;# 
   398     0188                     	;# 
   399     0189                     	;# 
   400     018C                     	;# 
   401     018D                     	;# 
   402     0000                     	;# 
   403     0001                     	;# 
   404     0002                     	;# 
   405     0003                     	;# 
   406     0004                     	;# 
   407     0005                     	;# 
   408     0006                     	;# 
   409     0007                     	;# 
   410     0008                     	;# 
   411     0009                     	;# 
   412     000A                     	;# 
   413     000B                     	;# 
   414     000C                     	;# 
   415     000D                     	;# 
   416     000E                     	;# 
   417     000E                     	;# 
   418     000F                     	;# 
   419     0010                     	;# 
   420     0011                     	;# 
   421     0012                     	;# 
   422     0013                     	;# 
   423     0014                     	;# 
   424     0015                     	;# 
   425     0015                     	;# 
   426     0016                     	;# 
   427     0017                     	;# 
   428     0018                     	;# 
   429     0019                     	;# 
   430     001A                     	;# 
   431     001B                     	;# 
   432     001B                     	;# 
   433     001C                     	;# 
   434     001D                     	;# 
   435     001E                     	;# 
   436     001F                     	;# 
   437     0081                     	;# 
   438     0085                     	;# 
   439     0086                     	;# 
   440     0087                     	;# 
   441     0088                     	;# 
   442     0089                     	;# 
   443     008C                     	;# 
   444     008D                     	;# 
   445     008E                     	;# 
   446     008F                     	;# 
   447     0090                     	;# 
   448     0091                     	;# 
   449     0092                     	;# 
   450     0093                     	;# 
   451     0093                     	;# 
   452     0093                     	;# 
   453     0094                     	;# 
   454     0095                     	;# 
   455     0096                     	;# 
   456     0097                     	;# 
   457     0098                     	;# 
   458     0099                     	;# 
   459     009A                     	;# 
   460     009B                     	;# 
   461     009C                     	;# 
   462     009D                     	;# 
   463     009E                     	;# 
   464     009F                     	;# 
   465     0105                     	;# 
   466     0107                     	;# 
   467     0108                     	;# 
   468     0109                     	;# 
   469     010C                     	;# 
   470     010C                     	;# 
   471     010D                     	;# 
   472     010E                     	;# 
   473     010F                     	;# 
   474     0185                     	;# 
   475     0187                     	;# 
   476     0188                     	;# 
   477     0189                     	;# 
   478     018C                     	;# 
   479     018D                     	;# 
   480     0000                     	;# 
   481     0001                     	;# 
   482     0002                     	;# 
   483     0003                     	;# 
   484     0004                     	;# 
   485     0005                     	;# 
   486     0006                     	;# 
   487     0007                     	;# 
   488     0008                     	;# 
   489     0009                     	;# 
   490     000A                     	;# 
   491     000B                     	;# 
   492     000C                     	;# 
   493     000D                     	;# 
   494     000E                     	;# 
   495     000E                     	;# 
   496     000F                     	;# 
   497     0010                     	;# 
   498     0011                     	;# 
   499     0012                     	;# 
   500     0013                     	;# 
   501     0014                     	;# 
   502     0015                     	;# 
   503     0015                     	;# 
   504     0016                     	;# 
   505     0017                     	;# 
   506     0018                     	;# 
   507     0019                     	;# 
   508     001A                     	;# 
   509     001B                     	;# 
   510     001B                     	;# 
   511     001C                     	;# 
   512     001D                     	;# 
   513     001E                     	;# 
   514     001F                     	;# 
   515     0081                     	;# 
   516     0085                     	;# 
   517     0086                     	;# 
   518     0087                     	;# 
   519     0088                     	;# 
   520     0089                     	;# 
   521     008C                     	;# 
   522     008D                     	;# 
   523     008E                     	;# 
   524     008F                     	;# 
   525     0090                     	;# 
   526     0091                     	;# 
   527     0092                     	;# 
   528     0093                     	;# 
   529     0093                     	;# 
   530     0093                     	;# 
   531     0094                     	;# 
   532     0095                     	;# 
   533     0096                     	;# 
   534     0097                     	;# 
   535     0098                     	;# 
   536     0099                     	;# 
   537     009A                     	;# 
   538     009B                     	;# 
   539     009C                     	;# 
   540     009D                     	;# 
   541     009E                     	;# 
   542     009F                     	;# 
   543     0105                     	;# 
   544     0107                     	;# 
   545     0108                     	;# 
   546     0109                     	;# 
   547     010C                     	;# 
   548     010C                     	;# 
   549     010D                     	;# 
   550     010E                     	;# 
   551     010F                     	;# 
   552     0185                     	;# 
   553     0187                     	;# 
   554     0188                     	;# 
   555     0189                     	;# 
   556     018C                     	;# 
   557     018D                     	;# 
   558     0000                     	;# 
   559     0001                     	;# 
   560     0002                     	;# 
   561     0003                     	;# 
   562     0004                     	;# 
   563     0005                     	;# 
   564     0006                     	;# 
   565     0007                     	;# 
   566     0008                     	;# 
   567     0009                     	;# 
   568     000A                     	;# 
   569     000B                     	;# 
   570     000C                     	;# 
   571     000D                     	;# 
   572     000E                     	;# 
   573     000E                     	;# 
   574     000F                     	;# 
   575     0010                     	;# 
   576     0011                     	;# 
   577     0012                     	;# 
   578     0013                     	;# 
   579     0014                     	;# 
   580     0015                     	;# 
   581     0015                     	;# 
   582     0016                     	;# 
   583     0017                     	;# 
   584     0018                     	;# 
   585     0019                     	;# 
   586     001A                     	;# 
   587     001B                     	;# 
   588     001B                     	;# 
   589     001C                     	;# 
   590     001D                     	;# 
   591     001E                     	;# 
   592     001F                     	;# 
   593     0081                     	;# 
   594     0085                     	;# 
   595     0086                     	;# 
   596     0087                     	;# 
   597     0088                     	;# 
   598     0089                     	;# 
   599     008C                     	;# 
   600     008D                     	;# 
   601     008E                     	;# 
   602     008F                     	;# 
   603     0090                     	;# 
   604     0091                     	;# 
   605     0092                     	;# 
   606     0093                     	;# 
   607     0093                     	;# 
   608     0093                     	;# 
   609     0094                     	;# 
   610     0095                     	;# 
   611     0096                     	;# 
   612     0097                     	;# 
   613     0098                     	;# 
   614     0099                     	;# 
   615     009A                     	;# 
   616     009B                     	;# 
   617     009C                     	;# 
   618     009D                     	;# 
   619     009E                     	;# 
   620     009F                     	;# 
   621     0105                     	;# 
   622     0107                     	;# 
   623     0108                     	;# 
   624     0109                     	;# 
   625     010C                     	;# 
   626     010C                     	;# 
   627     010D                     	;# 
   628     010E                     	;# 
   629     010F                     	;# 
   630     0185                     	;# 
   631     0187                     	;# 
   632     0188                     	;# 
   633     0189                     	;# 
   634     018C                     	;# 
   635     018D                     	;# 
   636                           
   637                           	psect	idataBANK3
   638     11AD                     __pidataBANK3:
   639                           
   640                           ;initializer for keypad_getkey@F1296
   641     11AD  3431               	retlw	49
   642     11AE  3432               	retlw	50
   643     11AF  3433               	retlw	51
   644     11B0  3441               	retlw	65
   645     11B1  3434               	retlw	52
   646     11B2  3435               	retlw	53
   647     11B3  3436               	retlw	54
   648     11B4  3442               	retlw	66
   649     11B5  3437               	retlw	55
   650     11B6  3438               	retlw	56
   651     11B7  3439               	retlw	57
   652     11B8  3443               	retlw	67
   653     11B9  342A               	retlw	42
   654     11BA  3430               	retlw	48
   655     11BB  3423               	retlw	35
   656     11BC  3444               	retlw	68
   657                           
   658                           	psect	strings
   659     0800                     __pstrings:
   660     0800                     stringtab:
   661     0800                     __stringtab:
   662                           
   663                           ;	String table - string pointers are 1 byte each
   664     0800  1BFF               	btfsc	btemp+1,7
   665     0801  280A               	ljmp	stringcode
   666     0802  1383               	bcf	3,7
   667     0803  187F               	btfsc	btemp+1,0
   668     0804  1783               	bsf	3,7
   669     0805  0800               	movf	0,w
   670     0806  0A84               	incf	4,f
   671     0807  1903               	skipnz
   672     0808  0AFF               	incf	btemp+1,f
   673     0809  0008               	return
   674     080A                     stringcode:
   675     080A                     stringdir:
   676     080A  3008               	movlw	high stringdir
   677     080B  008A               	movwf	10
   678     080C  0804               	movf	4,w
   679     080D  0A84               	incf	4,f
   680     080E  0782               	addwf	2,f
   681     080F                     __stringbase:
   682     080F  3400               	retlw	0
   683     0810                     __end_of__stringtab:
   684     0810                     _dpowers:
   685     0810  3401               	retlw	1
   686     0811  3400               	retlw	0
   687     0812  340A               	retlw	10
   688     0813  3400               	retlw	0
   689     0814  3464               	retlw	100
   690     0815  3400               	retlw	0
   691     0816  34E8               	retlw	232
   692     0817  3403               	retlw	3
   693     0818  3410               	retlw	16
   694     0819  3427               	retlw	39
   695     081A                     __end_of_dpowers:
   696     081A                     log@coeff:
   697     081A  3400               	retlw	0
   698     081B  3400               	retlw	0
   699     081C  3400               	retlw	0
   700     081D  3400               	retlw	0
   701     081E  34C4               	retlw	196
   702     081F  34FF               	retlw	255
   703     0820  347F               	retlw	127
   704     0821  343F               	retlw	63
   705     0822  3480               	retlw	128
   706     0823  34EF               	retlw	239
   707     0824  34FF               	retlw	255
   708     0825  34BE               	retlw	190
   709     0826  3490               	retlw	144
   710     0827  34E1               	retlw	225
   711     0828  34A9               	retlw	169
   712     0829  343E               	retlw	62
   713     082A  34EC               	retlw	236
   714     082B  3482               	retlw	130
   715     082C  3476               	retlw	118
   716     082D  34BE               	retlw	190
   717     082E  3482               	retlw	130
   718     082F  34AD               	retlw	173
   719     0830  342B               	retlw	43
   720     0831  343E               	retlw	62
   721     0832  340E               	retlw	14
   722     0833  343C               	retlw	60
   723     0834  34C3               	retlw	195
   724     0835  34BD               	retlw	189
   725     0836  3487               	retlw	135
   726     0837  34D1               	retlw	209
   727     0838  3413               	retlw	19
   728     0839  343D               	retlw	61
   729     083A  3441               	retlw	65
   730     083B  3478               	retlw	120
   731     083C  34D3               	retlw	211
   732     083D  34BB               	retlw	187
   733     083E                     __end_oflog@coeff:
   734     083E                     _password:
   735     083E  3430               	retlw	48
   736     083F  3430               	retlw	48
   737     0840  3430               	retlw	48
   738     0841  3430               	retlw	48
   739     0842  3430               	retlw	48
   740     0843  3400               	retlw	0
   741     0844                     __end_of_password:
   742     000E                     _TMR1	set	14
   743     0010                     _T1CON	set	16
   744     000C                     _PIR1bits	set	12
   745     001E                     _ADRESH	set	30
   746     001F                     _ADCON0bits	set	31
   747     0006                     _PORTB	set	6
   748     0008                     _PORTD	set	8
   749     0080                     _TMR1ON	set	128
   750     0060                     _TMR1IF	set	96
   751     005E                     _PEIE	set	94
   752     005F                     _GIE	set	95
   753     004A                     _RE2	set	74
   754     0049                     _RE1	set	73
   755     0048                     _RE0	set	72
   756     0041                     _RD1	set	65
   757     0040                     _RD0	set	64
   758     003A                     _RC2	set	58
   759     0038                     _RC0	set	56
   760     0039                     _RC1	set	57
   761     009E                     _ADRESL	set	158
   762     009F                     _ADCON1bits	set	159
   763     0085                     _TRISA	set	133
   764     0089                     _TRISE	set	137
   765     0081                     _OPTION_REGbits	set	129
   766     0086                     _TRISB	set	134
   767     0088                     _TRISD	set	136
   768     0087                     _TRISC	set	135
   769     008F                     _OSCCON	set	143
   770     0460                     _TMR1IE	set	1120
   771     0188                     _ANSEL	set	392
   772     0189                     _ANSELH	set	393
   773     0844                     STR_7:
   774     0844  3453               	retlw	83	;'S'
   775     0845  3465               	retlw	101	;'e'
   776     0846  346E               	retlw	110	;'n'
   777     0847  3473               	retlw	115	;'s'
   778     0848  346F               	retlw	111	;'o'
   779     0849  3472               	retlw	114	;'r'
   780     084A  3420               	retlw	32	;' '
   781     084B  3444               	retlw	68	;'D'
   782     084C  3469               	retlw	105	;'i'
   783     084D  3467               	retlw	103	;'g'
   784     084E  3469               	retlw	105	;'i'
   785     084F  3474               	retlw	116	;'t'
   786     0850  3461               	retlw	97	;'a'
   787     0851  346C               	retlw	108	;'l'
   788     0852  3420               	retlw	32	;' '
   789     0853  3441               	retlw	65	;'A'
   790     0854  3463               	retlw	99	;'c'
   791     0855  3474               	retlw	116	;'t'
   792     0856  3469               	retlw	105	;'i'
   793     0857  3476               	retlw	118	;'v'
   794     0858  3461               	retlw	97	;'a'
   795     0859  3464               	retlw	100	;'d'
   796     085A  346F               	retlw	111	;'o'
   797     085B  3400               	retlw	0
   798     085C                     STR_9:
   799     085C  3454               	retlw	84	;'T'
   800     085D  3465               	retlw	101	;'e'
   801     085E  346D               	retlw	109	;'m'
   802     085F  3470               	retlw	112	;'p'
   803     0860  3465               	retlw	101	;'e'
   804     0861  3472               	retlw	114	;'r'
   805     0862  3461               	retlw	97	;'a'
   806     0863  3474               	retlw	116	;'t'
   807     0864  3475               	retlw	117	;'u'
   808     0865  3472               	retlw	114	;'r'
   809     0866  3461               	retlw	97	;'a'
   810     0867  3420               	retlw	32	;' '
   811     0868  346D               	retlw	109	;'m'
   812     0869  3475               	retlw	117	;'u'
   813     086A  3479               	retlw	121	;'y'
   814     086B  3420               	retlw	32	;' '
   815     086C  3461               	retlw	97	;'a'
   816     086D  346C               	retlw	108	;'l'
   817     086E  3474               	retlw	116	;'t'
   818     086F  3461               	retlw	97	;'a'
   819     0870  3400               	retlw	0
   820     0871                     STR_6:
   821     0871  3469               	retlw	105	;'i'
   822     0872  3472               	retlw	114	;'r'
   823     0873  343D               	retlw	61	;'='
   824     0874  3425               	retlw	37	;'%'
   825     0875  3464               	retlw	100	;'d'
   826     0876  3420               	retlw	32	;' '
   827     0877  3468               	retlw	104	;'h'
   828     0878  346C               	retlw	108	;'l'
   829     0879  343D               	retlw	61	;'='
   830     087A  3425               	retlw	37	;'%'
   831     087B  3464               	retlw	100	;'d'
   832     087C  3420               	retlw	32	;' '
   833     087D  346D               	retlw	109	;'m'
   834     087E  3474               	retlw	116	;'t'
   835     087F  343D               	retlw	61	;'='
   836     0880  3425               	retlw	37	;'%'
   837     0881  3464               	retlw	100	;'d'
   838     0882  3400               	retlw	0
   839     0883                     STR_4:
   840     0883  3443               	retlw	67	;'C'
   841     0884  346C               	retlw	108	;'l'
   842     0885  3461               	retlw	97	;'a'
   843     0886  3476               	retlw	118	;'v'
   844     0887  3465               	retlw	101	;'e'
   845     0888  3420               	retlw	32	;' '
   846     0889  3449               	retlw	73	;'I'
   847     088A  346E               	retlw	110	;'n'
   848     088B  3463               	retlw	99	;'c'
   849     088C  346F               	retlw	111	;'o'
   850     088D  3472               	retlw	114	;'r'
   851     088E  3472               	retlw	114	;'r'
   852     088F  3465               	retlw	101	;'e'
   853     0890  3463               	retlw	99	;'c'
   854     0891  3474               	retlw	116	;'t'
   855     0892  3461               	retlw	97	;'a'
   856     0893  3400               	retlw	0
   857     0894                     STR_8:
   858     0894  3454               	retlw	84	;'T'
   859     0895  343D               	retlw	61	;'='
   860     0896  3425               	retlw	37	;'%'
   861     0897  3464               	retlw	100	;'d'
   862     0898  3420               	retlw	32	;' '
   863     0899  3450               	retlw	80	;'P'
   864     089A  3468               	retlw	104	;'h'
   865     089B  343D               	retlw	61	;'='
   866     089C  3425               	retlw	37	;'%'
   867     089D  3464               	retlw	100	;'d'
   868     089E  3420               	retlw	32	;' '
   869     089F  3446               	retlw	70	;'F'
   870     08A0  346C               	retlw	108	;'l'
   871     08A1  343D               	retlw	61	;'='
   872     08A2  3425               	retlw	37	;'%'
   873     08A3  3464               	retlw	100	;'d'
   874     08A4  3400               	retlw	0
   875     08A5                     STR_3:
   876     08A5  3443               	retlw	67	;'C'
   877     08A6  346C               	retlw	108	;'l'
   878     08A7  3461               	retlw	97	;'a'
   879     08A8  3476               	retlw	118	;'v'
   880     08A9  3465               	retlw	101	;'e'
   881     08AA  3420               	retlw	32	;' '
   882     08AB  3443               	retlw	67	;'C'
   883     08AC  346F               	retlw	111	;'o'
   884     08AD  3472               	retlw	114	;'r'
   885     08AE  3472               	retlw	114	;'r'
   886     08AF  3465               	retlw	101	;'e'
   887     08B0  3463               	retlw	99	;'c'
   888     08B1  3474               	retlw	116	;'t'
   889     08B2  3461               	retlw	97	;'a'
   890     08B3  3400               	retlw	0
   891     08B4                     STR_5:
   892     08B4  3453               	retlw	83	;'S'
   893     08B5  3469               	retlw	105	;'i'
   894     08B6  3473               	retlw	115	;'s'
   895     08B7  3420               	retlw	32	;' '
   896     08B8  3442               	retlw	66	;'B'
   897     08B9  346C               	retlw	108	;'l'
   898     08BA  346F               	retlw	111	;'o'
   899     08BB  3471               	retlw	113	;'q'
   900     08BC  3475               	retlw	117	;'u'
   901     08BD  3465               	retlw	101	;'e'
   902     08BE  3461               	retlw	97	;'a'
   903     08BF  3464               	retlw	100	;'d'
   904     08C0  346F               	retlw	111	;'o'
   905     08C1  3400               	retlw	0
   906     08C2                     STR_2:
   907     08C2  3450               	retlw	80	;'P'
   908     08C3  3472               	retlw	114	;'r'
   909     08C4  3465               	retlw	101	;'e'
   910     08C5  3473               	retlw	115	;'s'
   911     08C6  3473               	retlw	115	;'s'
   912     08C7  3420               	retlw	32	;' '
   913     08C8  3461               	retlw	97	;'a'
   914     08C9  3420               	retlw	32	;' '
   915     08CA  344B               	retlw	75	;'K'
   916     08CB  3465               	retlw	101	;'e'
   917     08CC  3479               	retlw	121	;'y'
   918     08CD  3400               	retlw	0
   919     08CE                     STR_1:
   920     08CE  3449               	retlw	73	;'I'
   921     08CF  346E               	retlw	110	;'n'
   922     08D0  3474               	retlw	116	;'t'
   923     08D1  3465               	retlw	101	;'e'
   924     08D2  346E               	retlw	110	;'n'
   925     08D3  3474               	retlw	116	;'t'
   926     08D4  346F               	retlw	111	;'o'
   927     08D5  3420               	retlw	32	;' '
   928     08D6  3432               	retlw	50	;'2'
   929     08D7  3400               	retlw	0
   930                           
   931                           	psect	cinit
   932     000F                     start_initialization:	
   933                           ; #config settings
   934                           
   935     000F                     __initialization:
   936                           
   937                           ; Initialize objects allocated to BANK3
   938     000F  1783               	bsf	3,7	;select IRP bank2
   939     0010  30B1               	movlw	low (__pdataBANK3+16)
   940     0011  00FD               	movwf	btemp+-1
   941     0012  3011               	movlw	high __pidataBANK3
   942     0013  00FE               	movwf	btemp
   943     0014  30AD               	movlw	low __pidataBANK3
   944     0015  00FF               	movwf	btemp+1
   945     0016  30A1               	movlw	low __pdataBANK3
   946     0017  0084               	movwf	4
   947     0018  160A  118A  21C1  120A  118A  	fcall	init_ram0
   948                           
   949                           ; Clear objects allocated to BANK3
   950     001D  3090               	movlw	low __pbssBANK3
   951     001E  0084               	movwf	4
   952     001F  30A1               	movlw	low (__pbssBANK3+17)
   953     0020  120A  158A  20DC  120A  118A  	fcall	clear_ram0
   954                           
   955                           ; Clear objects allocated to BANK1
   956     0025  1383               	bcf	3,7	;select IRP bank0
   957     0026  30DC               	movlw	low __pbssBANK1
   958     0027  0084               	movwf	4
   959     0028  30ED               	movlw	low (__pbssBANK1+17)
   960     0029  120A  158A  20DC  120A  118A  	fcall	clear_ram0
   961                           
   962                           ; Clear objects allocated to BANK0
   963     002E  01EF               	clrf	__pbssBANK0& (0+127)
   964                           
   965                           ; Clear objects allocated to COMMON
   966     002F  01FA               	clrf	__pbssCOMMON& (0+127)
   967     0030  01FB               	clrf	(__pbssCOMMON+1)& (0+127)
   968     0031                     end_of_initialization:	
   969                           ;End of C runtime variable initialization code
   970                           
   971     0031                     __end_of__initialization:
   972     0031  0183               	clrf	3
   973     0032  120A  158A  28E4   	ljmp	_main	;jump to C main() function
   974                           
   975                           	psect	bssCOMMON
   976     007A                     __pbssCOMMON:
   977     007A                     _var_sensor_ir:
   978     007A                     	ds	1
   979     007B                     _Estado:
   980     007B                     	ds	1
   981                           
   982                           	psect	bssBANK0
   983     006F                     __pbssBANK0:
   984     006F                     _idx:
   985     006F                     	ds	1
   986                           
   987                           	psect	bssBANK1
   988     00DC                     __pbssBANK1:
   989     00DC                     _errno:
   990     00DC                     	ds	2
   991     00DE                     _var_sensor_flame:
   992     00DE                     	ds	2
   993     00E0                     _var_sensor_Photo:
   994     00E0                     	ds	2
   995     00E2                     _var_sensor_Temp:
   996     00E2                     	ds	2
   997     00E4                     _intentos:
   998     00E4                     	ds	1
   999     00E5                     _var_sensor_metal:
  1000     00E5                     	ds	1
  1001     00E6                     _var_sensor_hall:
  1002     00E6                     	ds	1
  1003     00E7                     _pass_user:
  1004     00E7                     	ds	6
  1005                           
  1006                           	psect	bssBANK3
  1007     0190                     __pbssBANK3:
  1008     0190                     _buffer:
  1009     0190                     	ds	17
  1010                           
  1011                           	psect	dataBANK3
  1012     01A1                     __pdataBANK3:
  1013     01A1                     keypad_getkey@F1296:
  1014     01A1                     	ds	16
  1015                           
  1016                           	psect	inittext
  1017     11BD                     init_fetch0:	
  1018                           ;	Called with low address in FSR and high address in W
  1019                           
  1020     11BD  087E               	movf	btemp,w
  1021     11BE  008A               	movwf	10
  1022     11BF  087F               	movf	btemp+1,w
  1023     11C0  0082               	movwf	2
  1024     11C1                     init_ram0:	
  1025                           ;Called with:
  1026                           ;	high address of idata address in btemp 
  1027                           ;	low address of idata address in btemp+1 
  1028                           ;	low address of data in FSR
  1029                           ;	high address + 1 of data in btemp-1
  1030                           
  1031     11C1  160A  118A  21BD  160A  118A  	fcall	init_fetch0
  1032     11C6  0080               	movwf	0
  1033     11C7  0A84               	incf	4,f
  1034     11C8  0804               	movf	4,w
  1035     11C9  067D               	xorwf	btemp+-1,w
  1036     11CA  1903               	btfsc	3,2
  1037     11CB  3400               	retlw	0
  1038     11CC  0AFF               	incf	btemp+1,f
  1039     11CD  1903               	btfsc	3,2
  1040     11CE  0AFE               	incf	btemp,f
  1041     11CF  29C1               	goto	init_ram0
  1042                           
  1043                           	psect	clrtext
  1044     08DC                     clear_ram0:	
  1045                           ;	Called with FSR containing the base address, and
  1046                           ;	W with the last address+1
  1047                           
  1048     08DC  0064               	clrwdt	;clear the watchdog before getting into this loop
  1049     08DD                     clrloop0:
  1050     08DD  0180               	clrf	0	;clear RAM location pointed to by FSR
  1051     08DE  0A84               	incf	4,f	;increment pointer
  1052     08DF  0604               	xorwf	4,w	;XOR with final address
  1053     08E0  1903               	btfsc	3,2	;have we reached the end yet?
  1054     08E1  3400               	retlw	0	;all done for this memory range, return
  1055     08E2  0604               	xorwf	4,w	;XOR again to restore value
  1056     08E3  28DD               	goto	clrloop0	;do the next byte
  1057                           
  1058                           	psect	cstackBANK1
  1059     00A0                     __pcstackBANK1:
  1060     00A0                     ___fladd@signs:
  1061                           
  1062                           ; 1 bytes @ 0x0
  1063     00A0                     	ds	1
  1064     00A1                     ___fladd@aexp:
  1065                           
  1066                           ; 1 bytes @ 0x1
  1067     00A1                     	ds	1
  1068     00A2                     ___fladd@bexp:
  1069                           
  1070                           ; 1 bytes @ 0x2
  1071     00A2                     	ds	1
  1072     00A3                     ___fladd@grs:
  1073                           
  1074                           ; 1 bytes @ 0x3
  1075     00A3                     	ds	1
  1076     00A4                     ?_eval_poly:
  1077     00A4                     eval_poly@x:	
  1078                           ; 4 bytes @ 0x4
  1079                           
  1080                           
  1081                           ; 4 bytes @ 0x4
  1082     00A4                     	ds	4
  1083     00A8                     eval_poly@d:
  1084                           
  1085                           ; 1 bytes @ 0x8
  1086     00A8                     	ds	1
  1087     00A9                     eval_poly@n:
  1088                           
  1089                           ; 2 bytes @ 0x9
  1090     00A9                     	ds	2
  1091     00AB                     ??_eval_poly:
  1092                           
  1093                           ; 1 bytes @ 0xB
  1094     00AB                     	ds	5
  1095     00B0                     eval_poly@res:
  1096                           
  1097                           ; 4 bytes @ 0x10
  1098     00B0                     	ds	4
  1099     00B4                     ?_log:
  1100     00B4                     log@x:	
  1101                           ; 4 bytes @ 0x14
  1102                           
  1103                           
  1104                           ; 4 bytes @ 0x14
  1105     00B4                     	ds	4
  1106     00B8                     log@exponent:
  1107                           
  1108                           ; 2 bytes @ 0x18
  1109     00B8                     	ds	2
  1110     00BA                     ?___fltol:
  1111     00BA                     ___fltol@f1:	
  1112                           ; 4 bytes @ 0x1A
  1113                           
  1114                           
  1115                           ; 4 bytes @ 0x1A
  1116     00BA                     	ds	4
  1117     00BE                     ??___fltol:
  1118                           
  1119                           ; 1 bytes @ 0x1E
  1120     00BE                     	ds	4
  1121     00C2                     ___fltol@sign1:
  1122                           
  1123                           ; 1 bytes @ 0x22
  1124     00C2                     	ds	1
  1125     00C3                     ___fltol@exp1:
  1126                           
  1127                           ; 1 bytes @ 0x23
  1128     00C3                     	ds	1
  1129     00C4                     ??_function_ambiental:
  1130                           
  1131                           ; 1 bytes @ 0x24
  1132     00C4                     	ds	3
  1133     00C7                     function_ambiental@a:
  1134                           
  1135                           ; 4 bytes @ 0x27
  1136     00C7                     	ds	4
  1137     00CB                     _function_ambiental$1072:
  1138                           
  1139                           ; 4 bytes @ 0x2B
  1140     00CB                     	ds	4
  1141     00CF                     _function_ambiental$1073:
  1142                           
  1143                           ; 4 bytes @ 0x2F
  1144     00CF                     	ds	4
  1145     00D3                     _function_ambiental$1074:
  1146                           
  1147                           ; 4 bytes @ 0x33
  1148     00D3                     	ds	4
  1149     00D7                     function_ambiental@tempC:
  1150                           
  1151                           ; 2 bytes @ 0x37
  1152     00D7                     	ds	2
  1153     00D9                     ??_main:
  1154                           
  1155                           ; 1 bytes @ 0x39
  1156     00D9                     	ds	3
  1157                           
  1158                           	psect	cstackCOMMON
  1159     0070                     __pcstackCOMMON:
  1160     0070                     ?_LED_INIT:
  1161     0070                     ?_LCD_Init:	
  1162                           ; 1 bytes @ 0x0
  1163                           
  1164     0070                     ?_keypad_init:	
  1165                           ; 1 bytes @ 0x0
  1166                           
  1167     0070                     ?_ADC_init:	
  1168                           ; 1 bytes @ 0x0
  1169                           
  1170     0070                     ?_LCD_Clear:	
  1171                           ; 1 bytes @ 0x0
  1172                           
  1173     0070                     ?_function_clave_Seguridad:	
  1174                           ; 1 bytes @ 0x0
  1175                           
  1176     0070                     ?_function_eMonitoreo:	
  1177                           ; 1 bytes @ 0x0
  1178                           
  1179     0070                     ?_function_eBloqueado:	
  1180                           ; 1 bytes @ 0x0
  1181                           
  1182     0070                     ?_function_eAlarma:	
  1183                           ; 1 bytes @ 0x0
  1184                           
  1185     0070                     ?_function_ambiental:	
  1186                           ; 1 bytes @ 0x0
  1187                           
  1188     0070                     ?_LCD_Command:	
  1189                           ; 1 bytes @ 0x0
  1190                           
  1191     0070                     ?_keypad_getkey:	
  1192                           ; 1 bytes @ 0x0
  1193                           
  1194     0070                     ?_LCD_Char:	
  1195                           ; 1 bytes @ 0x0
  1196                           
  1197     0070                     ?_main:	
  1198                           ; 1 bytes @ 0x0
  1199                           
  1200     0070                     ?_Timer1_ISR:	
  1201                           ; 1 bytes @ 0x0
  1202                           
  1203     0070                     ??_Timer1_ISR:	
  1204                           ; 1 bytes @ 0x0
  1205                           
  1206                           
  1207                           ; 1 bytes @ 0x0
  1208     0070                     	ds	2
  1209     0072                     ?___fleq:
  1210     0072                     ?___flge:	
  1211                           ; 1 bit 
  1212                           
  1213     0072                     ??_LED_INIT:	
  1214                           ; 1 bit 
  1215                           
  1216     0072                     ??_keypad_init:	
  1217                           ; 1 bytes @ 0x2
  1218                           
  1219     0072                     ??_ADC_init:	
  1220                           ; 1 bytes @ 0x2
  1221                           
  1222     0072                     ?_LED_COLOR_ON:	
  1223                           ; 1 bytes @ 0x2
  1224                           
  1225     0072                     ??_LCD_Command:	
  1226                           ; 1 bytes @ 0x2
  1227                           
  1228     0072                     ??_keypad_getkey:	
  1229                           ; 1 bytes @ 0x2
  1230                           
  1231     0072                     ??_LCD_Char:	
  1232                           ; 1 bytes @ 0x2
  1233                           
  1234     0072                     ?_strncmp:	
  1235                           ; 1 bytes @ 0x2
  1236                           
  1237     0072                     ?_ConversionADC:	
  1238                           ; 2 bytes @ 0x2
  1239                           
  1240     0072                     ?__Umul8_16:	
  1241                           ; 2 bytes @ 0x2
  1242                           
  1243     0072                     ?___lwdiv:	
  1244                           ; 2 bytes @ 0x2
  1245                           
  1246     0072                     ?___xxtofl:	
  1247                           ; 2 bytes @ 0x2
  1248                           
  1249     0072                     LED_COLOR_ON@green:	
  1250                           ; 4 bytes @ 0x2
  1251                           
  1252     0072                     __Umul8_16@multiplicand:	
  1253                           ; 1 bytes @ 0x2
  1254                           
  1255     0072                     strncmp@s2:	
  1256                           ; 1 bytes @ 0x2
  1257                           
  1258     0072                     ConversionADC@channel:	
  1259                           ; 1 bytes @ 0x2
  1260                           
  1261     0072                     ___lwdiv@divisor:	
  1262                           ; 2 bytes @ 0x2
  1263                           
  1264     0072                     ___fleq@ff1:	
  1265                           ; 2 bytes @ 0x2
  1266                           
  1267     0072                     ___flge@ff1:	
  1268                           ; 4 bytes @ 0x2
  1269                           
  1270     0072                     ___xxtofl@val:	
  1271                           ; 4 bytes @ 0x2
  1272                           
  1273                           
  1274                           ; 4 bytes @ 0x2
  1275     0072                     	ds	1
  1276     0073                     LED_COLOR_ON@blue:
  1277     0073                     strncmp@len:	
  1278                           ; 1 bytes @ 0x3
  1279                           
  1280                           
  1281                           ; 2 bytes @ 0x3
  1282     0073                     	ds	1
  1283     0074                     ??_LED_COLOR_ON:
  1284     0074                     ??_ConversionADC:	
  1285                           ; 1 bytes @ 0x4
  1286                           
  1287     0074                     ??__Umul8_16:	
  1288                           ; 1 bytes @ 0x4
  1289                           
  1290     0074                     LCD_Command@cmd:	
  1291                           ; 1 bytes @ 0x4
  1292                           
  1293     0074                     LCD_Char@dat:	
  1294                           ; 1 bytes @ 0x4
  1295                           
  1296     0074                     LED_COLOR_ON@red:	
  1297                           ; 1 bytes @ 0x4
  1298                           
  1299     0074                     ___lwdiv@dividend:	
  1300                           ; 1 bytes @ 0x4
  1301                           
  1302                           
  1303                           ; 2 bytes @ 0x4
  1304     0074                     	ds	1
  1305     0075                     ??_LCD_Init:
  1306     0075                     ??_LCD_Clear:	
  1307                           ; 1 bytes @ 0x5
  1308                           
  1309     0075                     ??_strncmp:	
  1310                           ; 1 bytes @ 0x5
  1311                           
  1312     0075                     ?_LCD_String:	
  1313                           ; 1 bytes @ 0x5
  1314                           
  1315     0075                     LCD_String@msg:	
  1316                           ; 1 bytes @ 0x5
  1317                           
  1318                           
  1319                           ; 2 bytes @ 0x5
  1320     0075                     	ds	1
  1321     0076                     ??___lwdiv:
  1322     0076                     ??___xxtofl:	
  1323                           ; 1 bytes @ 0x6
  1324                           
  1325     0076                     ___lwdiv@quotient:	
  1326                           ; 1 bytes @ 0x6
  1327                           
  1328     0076                     ___fleq@ff2:	
  1329                           ; 2 bytes @ 0x6
  1330                           
  1331     0076                     ___flge@ff2:	
  1332                           ; 4 bytes @ 0x6
  1333                           
  1334                           
  1335                           ; 4 bytes @ 0x6
  1336     0076                     	ds	1
  1337     0077                     ?_LCD_String_xy:
  1338     0077                     ??_function_eAlarma:	
  1339                           ; 1 bytes @ 0x7
  1340                           
  1341     0077                     ??_LCD_String:	
  1342                           ; 1 bytes @ 0x7
  1343                           
  1344     0077                     LCD_String_xy@pos:	
  1345                           ; 1 bytes @ 0x7
  1346                           
  1347     0077                     strncmp@s1:	
  1348                           ; 1 bytes @ 0x7
  1349                           
  1350                           
  1351                           ; 1 bytes @ 0x7
  1352     0077                     	ds	1
  1353     0078                     ___lwdiv@counter:
  1354     0078                     LCD_String_xy@msg:	
  1355                           ; 1 bytes @ 0x8
  1356                           
  1357                           
  1358                           ; 2 bytes @ 0x8
  1359     0078                     	ds	1
  1360     0079                     ??___lwmod:
  1361     0079                     ___lwmod@counter:	
  1362                           ; 1 bytes @ 0x9
  1363                           
  1364                           
  1365                           ; 1 bytes @ 0x9
  1366     0079                     	ds	1
  1367     007A                     ??_LCD_String_xy:
  1368     007A                     ??_log:	
  1369                           ; 1 bytes @ 0xA
  1370                           
  1371                           
  1372                           	psect	cstackBANK0
  1373     0020                     __pcstackBANK0:	
  1374                           ; 1 bytes @ 0xA
  1375                           
  1376     0020                     ??___fleq:
  1377     0020                     ??___flge:	
  1378                           ; 1 bytes @ 0x0
  1379                           
  1380     0020                     ?___lwmod:	
  1381                           ; 1 bytes @ 0x0
  1382                           
  1383     0020                     LCD_String_xy@row:	
  1384                           ; 2 bytes @ 0x0
  1385                           
  1386     0020                     ___xxtofl@sign:	
  1387                           ; 1 bytes @ 0x0
  1388                           
  1389     0020                     function_eAlarma@i:	
  1390                           ; 1 bytes @ 0x0
  1391                           
  1392     0020                     ___lwmod@divisor:	
  1393                           ; 2 bytes @ 0x0
  1394                           
  1395     0020                     __Umul8_16@product:	
  1396                           ; 2 bytes @ 0x0
  1397                           
  1398     0020                     keypad_getkey@letras:	
  1399                           ; 2 bytes @ 0x0
  1400                           
  1401                           
  1402                           ; 16 bytes @ 0x0
  1403     0020                     	ds	1
  1404     0021                     LCD_String_xy@location:
  1405     0021                     ___xxtofl@exp:	
  1406                           ; 1 bytes @ 0x1
  1407                           
  1408                           
  1409                           ; 1 bytes @ 0x1
  1410     0021                     	ds	1
  1411     0022                     ??_function_eBloqueado:
  1412     0022                     ___lwmod@dividend:	
  1413                           ; 1 bytes @ 0x2
  1414                           
  1415     0022                     __Umul8_16@word_mpld:	
  1416                           ; 2 bytes @ 0x2
  1417                           
  1418     0022                     ___xxtofl@arg:	
  1419                           ; 2 bytes @ 0x2
  1420                           
  1421                           
  1422                           ; 4 bytes @ 0x2
  1423     0022                     	ds	2
  1424     0024                     ?_sprintf:
  1425     0024                     ?_frexp:	
  1426                           ; 2 bytes @ 0x4
  1427                           
  1428     0024                     sprintf@f:	
  1429                           ; 4 bytes @ 0x4
  1430                           
  1431     0024                     __Umul8_16@multiplier:	
  1432                           ; 1 bytes @ 0x4
  1433                           
  1434     0024                     frexp@value:	
  1435                           ; 1 bytes @ 0x4
  1436                           
  1437                           
  1438                           ; 4 bytes @ 0x4
  1439     0024                     	ds	4
  1440     0028                     frexp@eptr:
  1441                           
  1442                           ; 1 bytes @ 0x8
  1443     0028                     	ds	1
  1444     0029                     ??_frexp:
  1445                           
  1446                           ; 1 bytes @ 0x9
  1447     0029                     	ds	2
  1448     002B                     ??_sprintf:
  1449     002B                     ?___flmul:	
  1450                           ; 1 bytes @ 0xB
  1451                           
  1452     002B                     ___flmul@b:	
  1453                           ; 4 bytes @ 0xB
  1454                           
  1455                           
  1456                           ; 4 bytes @ 0xB
  1457     002B                     	ds	3
  1458     002E                     sprintf@ap:
  1459                           
  1460                           ; 1 bytes @ 0xE
  1461     002E                     	ds	1
  1462     002F                     sprintf@flag:
  1463     002F                     ___flmul@a:	
  1464                           ; 1 bytes @ 0xF
  1465                           
  1466                           
  1467                           ; 4 bytes @ 0xF
  1468     002F                     	ds	1
  1469     0030                     keypad_getkey@valor:
  1470     0030                     sprintf@ccnt:	
  1471                           ; 1 bytes @ 0x10
  1472                           
  1473                           
  1474                           ; 2 bytes @ 0x10
  1475     0030                     	ds	1
  1476     0031                     keypad_getkey@i:
  1477                           
  1478                           ; 2 bytes @ 0x11
  1479     0031                     	ds	1
  1480     0032                     sprintf@prec:
  1481                           
  1482                           ; 1 bytes @ 0x12
  1483     0032                     	ds	1
  1484     0033                     ??_function_clave_Seguridad:
  1485     0033                     ??___flmul:	
  1486                           ; 1 bytes @ 0x13
  1487                           
  1488     0033                     sprintf@val:	
  1489                           ; 1 bytes @ 0x13
  1490                           
  1491                           
  1492                           ; 2 bytes @ 0x13
  1493     0033                     	ds	2
  1494     0035                     sprintf@sp:
  1495                           
  1496                           ; 1 bytes @ 0x15
  1497     0035                     	ds	1
  1498     0036                     function_clave_Seguridad@key:
  1499     0036                     sprintf@c:	
  1500                           ; 1 bytes @ 0x16
  1501                           
  1502                           
  1503                           ; 1 bytes @ 0x16
  1504     0036                     	ds	1
  1505     0037                     ??_function_eMonitoreo:
  1506                           
  1507                           ; 1 bytes @ 0x17
  1508     0037                     	ds	1
  1509     0038                     ___flmul@sign:
  1510                           
  1511                           ; 1 bytes @ 0x18
  1512     0038                     	ds	1
  1513     0039                     ___flmul@aexp:
  1514                           
  1515                           ; 1 bytes @ 0x19
  1516     0039                     	ds	1
  1517     003A                     ___flmul@grs:
  1518                           
  1519                           ; 4 bytes @ 0x1A
  1520     003A                     	ds	4
  1521     003E                     ___flmul@bexp:
  1522                           
  1523                           ; 1 bytes @ 0x1E
  1524     003E                     	ds	1
  1525     003F                     ___flmul@prod:
  1526                           
  1527                           ; 4 bytes @ 0x1F
  1528     003F                     	ds	4
  1529     0043                     ___flmul@temp:
  1530                           
  1531                           ; 2 bytes @ 0x23
  1532     0043                     	ds	2
  1533     0045                     ?___fldiv:
  1534     0045                     ___fldiv@a:	
  1535                           ; 4 bytes @ 0x25
  1536                           
  1537                           
  1538                           ; 4 bytes @ 0x25
  1539     0045                     	ds	4
  1540     0049                     ___fldiv@b:
  1541                           
  1542                           ; 4 bytes @ 0x29
  1543     0049                     	ds	4
  1544     004D                     ??___fldiv:
  1545                           
  1546                           ; 1 bytes @ 0x2D
  1547     004D                     	ds	5
  1548     0052                     ___fldiv@rem:
  1549                           
  1550                           ; 4 bytes @ 0x32
  1551     0052                     	ds	4
  1552     0056                     ___fldiv@sign:
  1553                           
  1554                           ; 1 bytes @ 0x36
  1555     0056                     	ds	1
  1556     0057                     ___fldiv@new_exp:
  1557                           
  1558                           ; 2 bytes @ 0x37
  1559     0057                     	ds	2
  1560     0059                     ___fldiv@grs:
  1561                           
  1562                           ; 4 bytes @ 0x39
  1563     0059                     	ds	4
  1564     005D                     ___fldiv@bexp:
  1565                           
  1566                           ; 1 bytes @ 0x3D
  1567     005D                     	ds	1
  1568     005E                     ___fldiv@aexp:
  1569                           
  1570                           ; 1 bytes @ 0x3E
  1571     005E                     	ds	1
  1572     005F                     ?___fladd:
  1573     005F                     ___fladd@b:	
  1574                           ; 4 bytes @ 0x3F
  1575                           
  1576                           
  1577                           ; 4 bytes @ 0x3F
  1578     005F                     	ds	4
  1579     0063                     ___fladd@a:
  1580                           
  1581                           ; 4 bytes @ 0x43
  1582     0063                     	ds	4
  1583     0067                     ??___fladd:
  1584                           
  1585                           ; 1 bytes @ 0x47
  1586     0067                     	ds	8
  1587                           
  1588                           	psect	maintext
  1589     08E4                     __pmaintext:	
  1590 ;;
  1591 ;;Main: autosize = 0, tempsize = 3, incstack = 0, save=0
  1592 ;;
  1593 ;; *************** function _main *****************
  1594 ;; Defined at:
  1595 ;;		line 55 in file "Main_Seguridad.c"
  1596 ;; Parameters:    Size  Location     Type
  1597 ;;		None
  1598 ;; Auto vars:     Size  Location     Type
  1599 ;;		None
  1600 ;; Return value:  Size  Location     Type
  1601 ;;                  1    wreg      void 
  1602 ;; Registers used:
  1603 ;;		wreg, fsr0l, fsr0h, status,2, status,0, btemp+1, pclath, cstack
  1604 ;; Tracked objects:
  1605 ;;		On entry : B00/0
  1606 ;;		On exit  : 0/0
  1607 ;;		Unchanged: 0/0
  1608 ;; Data sizes:     COMMON   BANK0   BANK1   BANK3   BANK2
  1609 ;;      Params:         0       0       0       0       0
  1610 ;;      Locals:         0       0       0       0       0
  1611 ;;      Temps:          0       0       3       0       0
  1612 ;;      Totals:         0       0       3       0       0
  1613 ;;Total ram usage:        3 bytes
  1614 ;; Hardware stack levels required when called: 6
  1615 ;; This function calls:
  1616 ;;		_ADC_init
  1617 ;;		_LCD_Clear
  1618 ;;		_LCD_Init
  1619 ;;		_LCD_String_xy
  1620 ;;		_LED_INIT
  1621 ;;		_function_ambiental
  1622 ;;		_function_clave_Seguridad
  1623 ;;		_function_eAlarma
  1624 ;;		_function_eBloqueado
  1625 ;;		_function_eMonitoreo
  1626 ;;		_keypad_init
  1627 ;; This function is called by:
  1628 ;;		Startup code after reset
  1629 ;; This function uses a non-reentrant model
  1630 ;;
  1631                           
  1632     08E4                     _main:	
  1633                           ;psect for function _main
  1634                           
  1635     08E4                     l3949:	
  1636                           ;incstack = 0
  1637                           ; Regs used in _main: [wreg-fsr0h+status,2+status,0+btemp+1+pclath+cstack]
  1638                           
  1639                           
  1640                           ;Main_Seguridad.c: 57:     OSCCON = 0x71;
  1641     08E4  3071               	movlw	113
  1642     08E5  1683               	bsf	3,5	;RP0=1, select bank1
  1643     08E6  1303               	bcf	3,6	;RP1=0, select bank1
  1644     08E7  008F               	movwf	15	;volatile
  1645     08E8                     l3951:
  1646                           
  1647                           ;Main_Seguridad.c: 59:     LED_INIT();
  1648     08E8  160A  118A  2178  120A  158A  	fcall	_LED_INIT
  1649                           
  1650                           ;Main_Seguridad.c: 61:     LCD_Init();
  1651     08ED  160A  118A  229C  120A  158A  	fcall	_LCD_Init
  1652     08F2                     l3953:
  1653                           
  1654                           ;Main_Seguridad.c: 63:     keypad_init();
  1655     08F2  160A  118A  218E  120A  158A  	fcall	_keypad_init
  1656     08F7                     l3955:
  1657                           
  1658                           ;Main_Seguridad.c: 64:     ADC_init();
  1659     08F7  160A  118A  21D0  120A  158A  	fcall	_ADC_init
  1660     08FC                     l3957:
  1661                           
  1662                           ;Main_Seguridad.c: 65:     TRISC =0x07;
  1663     08FC  3007               	movlw	7
  1664     08FD  1683               	bsf	3,5	;RP0=1, select bank1
  1665     08FE  1303               	bcf	3,6	;RP1=0, select bank1
  1666     08FF  0087               	movwf	7	;volatile
  1667     0900                     l3959:
  1668                           
  1669                           ;Main_Seguridad.c: 66:     TRISD = 0x00;
  1670     0900  0188               	clrf	8	;volatile
  1671     0901                     l3961:
  1672                           
  1673                           ;Main_Seguridad.c: 69:     var_sensor_ir= RC1;
  1674     0901  3000               	movlw	0
  1675     0902  1283               	bcf	3,5	;RP0=0, select bank0
  1676     0903  1303               	bcf	3,6	;RP1=0, select bank0
  1677     0904  1887               	btfsc	7,1	;volatile
  1678     0905  3001               	movlw	1
  1679     0906  00FA               	movwf	_var_sensor_ir
  1680     0907                     l3963:
  1681                           
  1682                           ;Main_Seguridad.c: 70:     var_sensor_hall= RC0;
  1683     0907  3000               	movlw	0
  1684     0908  1807               	btfsc	7,0	;volatile
  1685     0909  3001               	movlw	1
  1686     090A  1683               	bsf	3,5	;RP0=1, select bank1
  1687     090B  1303               	bcf	3,6	;RP1=0, select bank1
  1688     090C  00E6               	movwf	_var_sensor_hall^(0+128)
  1689     090D                     l3965:
  1690                           
  1691                           ;Main_Seguridad.c: 71:     var_sensor_metal= RC2;
  1692     090D  3000               	movlw	0
  1693     090E  1283               	bcf	3,5	;RP0=0, select bank0
  1694     090F  1303               	bcf	3,6	;RP1=0, select bank0
  1695     0910  1907               	btfsc	7,2	;volatile
  1696     0911  3001               	movlw	1
  1697     0912  1683               	bsf	3,5	;RP0=1, select bank1
  1698     0913  1303               	bcf	3,6	;RP1=0, select bank1
  1699     0914  00E5               	movwf	_var_sensor_metal^(0+128)
  1700     0915                     l3967:
  1701                           
  1702                           ;Main_Seguridad.c: 83:     LCD_String_xy(0,0,"Intento 2");
  1703     0915  01F7               	clrf	LCD_String_xy@pos
  1704     0916  30BF               	movlw	(low ((STR_1-__stringbase)| (0+32768)))& (0+255)
  1705     0917  00F8               	movwf	LCD_String_xy@msg
  1706     0918  3080               	movlw	128
  1707     0919  00F9               	movwf	LCD_String_xy@msg+1
  1708     091A  3000               	movlw	0
  1709     091B  160A  118A  224B  120A  158A  	fcall	_LCD_String_xy
  1710     0920                     l3969:
  1711                           
  1712                           ;Main_Seguridad.c: 84:     _delay((unsigned long)((2000)*(8000000/4000.0)));
  1713     0920  3015               	movlw	21
  1714     0921  1683               	bsf	3,5	;RP0=1, select bank1
  1715     0922  1303               	bcf	3,6	;RP1=0, select bank1
  1716     0923  00DB               	movwf	(??_main^(0+128)+2)
  1717     0924  304B               	movlw	75
  1718     0925  00DA               	movwf	(??_main^(0+128)+1)
  1719     0926  30BD               	movlw	189
  1720     0927  00D9               	movwf	??_main^(0+128)
  1721     0928                     u5217:
  1722     0928  0BD9               	decfsz	??_main^(0+128),f
  1723     0929  2928               	goto	u5217
  1724     092A  0BDA               	decfsz	(??_main^(0+128)+1),f
  1725     092B  2928               	goto	u5217
  1726     092C  0BDB               	decfsz	(??_main^(0+128)+2),f
  1727     092D  2928               	goto	u5217
  1728     092E  292F               	nop2
  1729     092F                     l3971:
  1730                           
  1731                           ;Main_Seguridad.c: 85:     LCD_Clear();
  1732     092F  160A  118A  219D  120A  158A  	fcall	_LCD_Clear
  1733     0934                     l3973:
  1734                           
  1735                           ;Main_Seguridad.c: 86:     Estado = seguridad;
  1736     0934  01FB               	clrf	_Estado
  1737     0935                     l3975:
  1738                           
  1739                           ;Main_Seguridad.c: 88:         if(Estado == seguridad){
  1740     0935  087B               	movf	_Estado,w
  1741     0936  1D03               	btfss	3,2
  1742     0937  2939               	goto	u5161
  1743     0938  293A               	goto	u5160
  1744     0939                     u5161:
  1745     0939  2940               	goto	l3979
  1746     093A                     u5160:
  1747     093A                     l3977:
  1748                           
  1749                           ;Main_Seguridad.c: 89:             function_clave_Seguridad();
  1750     093A  160A  118A  272F  120A  158A  	fcall	_function_clave_Seguridad
  1751                           
  1752                           ;Main_Seguridad.c: 90:         }
  1753     093F  2935               	goto	l3975
  1754     0940                     l3979:
  1755     0940  037B               	decf	_Estado,w
  1756     0941  1D03               	btfss	3,2
  1757     0942  2944               	goto	u5171
  1758     0943  2945               	goto	u5170
  1759     0944                     u5171:
  1760     0944  294B               	goto	l3983
  1761     0945                     u5170:
  1762     0945                     l3981:
  1763                           
  1764                           ;Main_Seguridad.c: 92:             function_eMonitoreo();
  1765     0945  160A  118A  2551  120A  158A  	fcall	_function_eMonitoreo
  1766                           
  1767                           ;Main_Seguridad.c: 93:         }
  1768     094A  2935               	goto	l3975
  1769     094B                     l3983:
  1770     094B  3002               	movlw	2
  1771     094C  067B               	xorwf	_Estado,w
  1772     094D  1D03               	btfss	3,2
  1773     094E  2950               	goto	u5181
  1774     094F  2951               	goto	u5180
  1775     0950                     u5181:
  1776     0950  2957               	goto	l3987
  1777     0951                     u5180:
  1778     0951                     l3985:
  1779                           
  1780                           ;Main_Seguridad.c: 95:             function_eBloqueado();
  1781     0951  160A  118A  22C6  120A  158A  	fcall	_function_eBloqueado
  1782                           
  1783                           ;Main_Seguridad.c: 96:         }
  1784     0956  2935               	goto	l3975
  1785     0957                     l3987:
  1786     0957  3003               	movlw	3
  1787     0958  067B               	xorwf	_Estado,w
  1788     0959  1D03               	btfss	3,2
  1789     095A  295C               	goto	u5191
  1790     095B  295D               	goto	u5190
  1791     095C                     u5191:
  1792     095C  2963               	goto	l3991
  1793     095D                     u5190:
  1794     095D                     l3989:
  1795                           
  1796                           ;Main_Seguridad.c: 98:             function_eAlarma();
  1797     095D  160A  118A  23E2  120A  158A  	fcall	_function_eAlarma
  1798                           
  1799                           ;Main_Seguridad.c: 99:         }
  1800     0962  2935               	goto	l3975
  1801     0963                     l3991:
  1802     0963  3004               	movlw	4
  1803     0964  067B               	xorwf	_Estado,w
  1804     0965  1D03               	btfss	3,2
  1805     0966  2968               	goto	u5201
  1806     0967  2969               	goto	u5200
  1807     0968                     u5201:
  1808     0968  293A               	goto	l3977
  1809     0969                     u5200:
  1810     0969                     l3993:
  1811                           
  1812                           ;Main_Seguridad.c: 101:             function_ambiental();
  1813     0969  120A  158A  25F1  120A  158A  	fcall	_function_ambiental
  1814                           
  1815                           ;Main_Seguridad.c: 102:         }
  1816     096E  2935               	goto	l3975
  1817     096F  120A  118A  280C   	ljmp	start
  1818     0972                     __end_of_main:
  1819                           
  1820                           	psect	text1
  1821     118E                     __ptext1:	
  1822 ;; *************** function _keypad_init *****************
  1823 ;; Defined at:
  1824 ;;		line 38 in file "keypad.c"
  1825 ;; Parameters:    Size  Location     Type
  1826 ;;		None
  1827 ;; Auto vars:     Size  Location     Type
  1828 ;;		None
  1829 ;; Return value:  Size  Location     Type
  1830 ;;                  1    wreg      void 
  1831 ;; Registers used:
  1832 ;;		wreg, status,2, status,0, btemp+1
  1833 ;; Tracked objects:
  1834 ;;		On entry : 0/0
  1835 ;;		On exit  : 0/0
  1836 ;;		Unchanged: 0/0
  1837 ;; Data sizes:     COMMON   BANK0   BANK1   BANK3   BANK2
  1838 ;;      Params:         0       0       0       0       0
  1839 ;;      Locals:         0       0       0       0       0
  1840 ;;      Temps:          0       0       0       0       0
  1841 ;;      Totals:         0       0       0       0       0
  1842 ;;Total ram usage:        0 bytes
  1843 ;; Hardware stack levels used: 1
  1844 ;; Hardware stack levels required when called: 1
  1845 ;; This function calls:
  1846 ;;		Nothing
  1847 ;; This function is called by:
  1848 ;;		_main
  1849 ;; This function uses a non-reentrant model
  1850 ;;
  1851                           
  1852     118E                     _keypad_init:	
  1853                           ;psect for function _keypad_init
  1854                           
  1855     118E                     l3271:	
  1856                           ;incstack = 0
  1857                           ; Regs used in _keypad_init: [wreg+status,2+status,0+btemp+1]
  1858                           
  1859                           
  1860                           ;keypad.c: 40:     TRISB &= ~(1<<0) & ~(1<<1) & ~(1<<2) & ~(1<<3);
  1861     118E  30F0               	movlw	240
  1862     118F  00FF               	movwf	btemp+1
  1863     1190  087F               	movf	btemp+1,w
  1864     1191  1683               	bsf	3,5	;RP0=1, select bank1
  1865     1192  1303               	bcf	3,6	;RP1=0, select bank1
  1866     1193  0586               	andwf	6,f	;volatile
  1867                           
  1868                           ;keypad.c: 41:     TRISB |= (1<<4) | (1<<5) | (1<<6) | (1<<7);
  1869     1194  30F0               	movlw	240
  1870     1195  00FF               	movwf	btemp+1
  1871     1196  087F               	movf	btemp+1,w
  1872     1197  0486               	iorwf	6,f	;volatile
  1873     1198                     l3273:
  1874                           
  1875                           ;keypad.c: 42:     OPTION_REGbits.nRBPU = 0;
  1876     1198  1381               	bcf	1,7	;volatile
  1877     1199                     l3275:
  1878                           
  1879                           ;keypad.c: 43:     ANSELH = 0;
  1880     1199  1683               	bsf	3,5	;RP0=1, select bank3
  1881     119A  1703               	bsf	3,6	;RP1=1, select bank3
  1882     119B  0189               	clrf	9	;volatile
  1883     119C                     l172:
  1884     119C  0008               	return
  1885     119D                     __end_of_keypad_init:
  1886                           
  1887                           	psect	text2
  1888     1551                     __ptext2:	
  1889 ;; *************** function _function_eMonitoreo *****************
  1890 ;; Defined at:
  1891 ;;		line 172 in file "Main_Seguridad.c"
  1892 ;; Parameters:    Size  Location     Type
  1893 ;;		None
  1894 ;; Auto vars:     Size  Location     Type
  1895 ;;  n               2    0        int 
  1896 ;; Return value:  Size  Location     Type
  1897 ;;                  1    wreg      void 
  1898 ;; Registers used:
  1899 ;;		wreg, fsr0l, fsr0h, status,2, status,0, btemp+1, pclath, cstack
  1900 ;; Tracked objects:
  1901 ;;		On entry : 0/0
  1902 ;;		On exit  : 0/0
  1903 ;;		Unchanged: 0/0
  1904 ;; Data sizes:     COMMON   BANK0   BANK1   BANK3   BANK2
  1905 ;;      Params:         0       0       0       0       0
  1906 ;;      Locals:         0       0       0       0       0
  1907 ;;      Temps:          0       6       0       0       0
  1908 ;;      Totals:         0       6       0       0       0
  1909 ;;Total ram usage:        6 bytes
  1910 ;; Hardware stack levels used: 1
  1911 ;; Hardware stack levels required when called: 4
  1912 ;; This function calls:
  1913 ;;		_LCD_Clear
  1914 ;;		_LCD_String_xy
  1915 ;;		_sprintf
  1916 ;; This function is called by:
  1917 ;;		_main
  1918 ;; This function uses a non-reentrant model
  1919 ;;
  1920                           
  1921     1551                     _function_eMonitoreo:	
  1922                           ;psect for function _function_eMonitoreo
  1923                           
  1924     1551                     l3849:	
  1925                           ;incstack = 0
  1926                           ; Regs used in _function_eMonitoreo: [wreg-fsr0h+status,2+status,0+btemp+1+pclath+cstack
      +                          ]
  1927                           
  1928                           
  1929                           ;Main_Seguridad.c: 173:         LCD_Clear();
  1930     1551  160A  118A  219D  160A  118A  	fcall	_LCD_Clear
  1931     1556                     l3851:
  1932                           
  1933                           ;Main_Seguridad.c: 174:         var_sensor_ir= RC1;
  1934     1556  3000               	movlw	0
  1935     1557  1283               	bcf	3,5	;RP0=0, select bank0
  1936     1558  1303               	bcf	3,6	;RP1=0, select bank0
  1937     1559  1887               	btfsc	7,1	;volatile
  1938     155A  3001               	movlw	1
  1939     155B  00FA               	movwf	_var_sensor_ir
  1940     155C                     l3853:
  1941                           
  1942                           ;Main_Seguridad.c: 175:         var_sensor_hall= RC0;
  1943     155C  3000               	movlw	0
  1944     155D  1807               	btfsc	7,0	;volatile
  1945     155E  3001               	movlw	1
  1946     155F  1683               	bsf	3,5	;RP0=1, select bank1
  1947     1560  1303               	bcf	3,6	;RP1=0, select bank1
  1948     1561  00E6               	movwf	_var_sensor_hall^(0+128)
  1949     1562                     l3855:
  1950                           
  1951                           ;Main_Seguridad.c: 176:         var_sensor_metal= RC2;
  1952     1562  3000               	movlw	0
  1953     1563  1283               	bcf	3,5	;RP0=0, select bank0
  1954     1564  1303               	bcf	3,6	;RP1=0, select bank0
  1955     1565  1907               	btfsc	7,2	;volatile
  1956     1566  3001               	movlw	1
  1957     1567  1683               	bsf	3,5	;RP0=1, select bank1
  1958     1568  1303               	bcf	3,6	;RP1=0, select bank1
  1959     1569  00E5               	movwf	_var_sensor_metal^(0+128)
  1960     156A                     l3857:
  1961     156A  3062               	movlw	(low ((STR_6-__stringbase)| (0+32768)))& (0+255)
  1962     156B  1283               	bcf	3,5	;RP0=0, select bank0
  1963     156C  1303               	bcf	3,6	;RP1=0, select bank0
  1964     156D  00A4               	movwf	sprintf@f
  1965     156E  087A               	movf	_var_sensor_ir,w
  1966     156F  00B7               	movwf	??_function_eMonitoreo
  1967     1570  01B8               	clrf	??_function_eMonitoreo+1
  1968     1571  0837               	movf	??_function_eMonitoreo,w
  1969     1572  00A5               	movwf	?_sprintf+1
  1970     1573  0838               	movf	??_function_eMonitoreo+1,w
  1971     1574  00A6               	movwf	?_sprintf+2
  1972     1575  1683               	bsf	3,5	;RP0=1, select bank1
  1973     1576  1303               	bcf	3,6	;RP1=0, select bank1
  1974     1577  0866               	movf	_var_sensor_hall^(0+128),w
  1975     1578  1283               	bcf	3,5	;RP0=0, select bank0
  1976     1579  1303               	bcf	3,6	;RP1=0, select bank0
  1977     157A  00B9               	movwf	??_function_eMonitoreo+2
  1978     157B  01BA               	clrf	??_function_eMonitoreo+3
  1979     157C  0839               	movf	??_function_eMonitoreo+2,w
  1980     157D  00A7               	movwf	?_sprintf+3
  1981     157E  083A               	movf	??_function_eMonitoreo+3,w
  1982     157F  00A8               	movwf	?_sprintf+4
  1983     1580  1683               	bsf	3,5	;RP0=1, select bank1
  1984     1581  1303               	bcf	3,6	;RP1=0, select bank1
  1985     1582  0865               	movf	_var_sensor_metal^(0+128),w
  1986     1583  1283               	bcf	3,5	;RP0=0, select bank0
  1987     1584  1303               	bcf	3,6	;RP1=0, select bank0
  1988     1585  00BB               	movwf	??_function_eMonitoreo+4
  1989     1586  01BC               	clrf	??_function_eMonitoreo+5
  1990     1587  083B               	movf	??_function_eMonitoreo+4,w
  1991     1588  00A9               	movwf	?_sprintf+5
  1992     1589  083C               	movf	??_function_eMonitoreo+5,w
  1993     158A  00AA               	movwf	?_sprintf+6
  1994     158B  3090               	movlw	(low (_buffer| (0+256)))& (0+255)
  1995     158C  120A  158A  232E  160A  118A  	fcall	_sprintf
  1996     1591                     l3859:
  1997                           
  1998                           ;Main_Seguridad.c: 178:         LCD_String_xy(0,0,buffer);
  1999     1591  01F7               	clrf	LCD_String_xy@pos
  2000     1592  3090               	movlw	(low (_buffer| (0+256)))& (0+255)
  2001     1593  00F8               	movwf	LCD_String_xy@msg
  2002     1594  3001               	movlw	1
  2003     1595  00F9               	movwf	LCD_String_xy@msg+1
  2004     1596  3000               	movlw	0
  2005     1597  160A  118A  224B  160A  118A  	fcall	_LCD_String_xy
  2006     159C                     l3861:
  2007                           
  2008                           ;Main_Seguridad.c: 180:         if(var_sensor_ir ==1 || var_sensor_hall== 1 || var_senso
      +                          r_metal==1 ){
  2009     159C  037A               	decf	_var_sensor_ir,w
  2010     159D  1903               	btfsc	3,2
  2011     159E  2DA0               	goto	u5111
  2012     159F  2DA1               	goto	u5110
  2013     15A0                     u5111:
  2014     15A0  2DAD               	goto	l3867
  2015     15A1                     u5110:
  2016     15A1                     l3863:
  2017     15A1  1683               	bsf	3,5	;RP0=1, select bank1
  2018     15A2  1303               	bcf	3,6	;RP1=0, select bank1
  2019     15A3  0366               	decf	_var_sensor_hall^(0+128),w
  2020     15A4  1903               	btfsc	3,2
  2021     15A5  2DA7               	goto	u5121
  2022     15A6  2DA8               	goto	u5120
  2023     15A7                     u5121:
  2024     15A7  2DAD               	goto	l3867
  2025     15A8                     u5120:
  2026     15A8                     l3865:
  2027     15A8  0365               	decf	_var_sensor_metal^(0+128),w
  2028     15A9  1D03               	btfss	3,2
  2029     15AA  2DAC               	goto	u5131
  2030     15AB  2DAD               	goto	u5130
  2031     15AC                     u5131:
  2032     15AC  2DBF               	goto	l3873
  2033     15AD                     u5130:
  2034     15AD                     l3867:
  2035                           
  2036                           ;Main_Seguridad.c: 181:             LCD_Clear();
  2037     15AD  160A  118A  219D  160A  118A  	fcall	_LCD_Clear
  2038     15B2                     l3869:
  2039                           
  2040                           ;Main_Seguridad.c: 182:             LCD_String_xy(0,0,"Sensor Digital Activado");
  2041     15B2  01F7               	clrf	LCD_String_xy@pos
  2042     15B3  3035               	movlw	(low ((STR_7-__stringbase)| (0+32768)))& (0+255)
  2043     15B4  00F8               	movwf	LCD_String_xy@msg
  2044     15B5  3080               	movlw	128
  2045     15B6  00F9               	movwf	LCD_String_xy@msg+1
  2046     15B7  3000               	movlw	0
  2047     15B8  160A  118A  224B  160A  118A  	fcall	_LCD_String_xy
  2048     15BD                     l3871:
  2049                           
  2050                           ;Main_Seguridad.c: 183:             Estado=alarma;
  2051     15BD  3003               	movlw	3
  2052     15BE  00FB               	movwf	_Estado
  2053     15BF                     l3873:
  2054                           
  2055                           ;Main_Seguridad.c: 185:         _delay((unsigned long)((3000)*(8000000/4000.0)));
  2056     15BF  301F               	movlw	31
  2057     15C0  1283               	bcf	3,5	;RP0=0, select bank0
  2058     15C1  1303               	bcf	3,6	;RP1=0, select bank0
  2059     15C2  00B9               	movwf	??_function_eMonitoreo+2
  2060     15C3  3071               	movlw	113
  2061     15C4  00B8               	movwf	??_function_eMonitoreo+1
  2062     15C5  301D               	movlw	29
  2063     15C6  00B7               	movwf	??_function_eMonitoreo
  2064     15C7                     u5227:
  2065     15C7  0BB7               	decfsz	??_function_eMonitoreo,f
  2066     15C8  2DC7               	goto	u5227
  2067     15C9  0BB8               	decfsz	??_function_eMonitoreo+1,f
  2068     15CA  2DC7               	goto	u5227
  2069     15CB  0BB9               	decfsz	??_function_eMonitoreo+2,f
  2070     15CC  2DC7               	goto	u5227
  2071     15CD  2DCE               	nop2
  2072     15CE                     l3875:
  2073                           
  2074                           ;Main_Seguridad.c: 186:         Estado = ambiente;
  2075     15CE  3004               	movlw	4
  2076     15CF  00FB               	movwf	_Estado
  2077     15D0                     l118:
  2078     15D0  0008               	return
  2079     15D1                     __end_of_function_eMonitoreo:
  2080                           
  2081                           	psect	text3
  2082     12C6                     __ptext3:	
  2083 ;; *************** function _function_eBloqueado *****************
  2084 ;; Defined at:
  2085 ;;		line 148 in file "Main_Seguridad.c"
  2086 ;; Parameters:    Size  Location     Type
  2087 ;;		None
  2088 ;; Auto vars:     Size  Location     Type
  2089 ;;		None
  2090 ;; Return value:  Size  Location     Type
  2091 ;;                  1    wreg      void 
  2092 ;; Registers used:
  2093 ;;		wreg, fsr0l, fsr0h, status,2, status,0, btemp+1, pclath, cstack
  2094 ;; Tracked objects:
  2095 ;;		On entry : 0/0
  2096 ;;		On exit  : 0/0
  2097 ;;		Unchanged: 0/0
  2098 ;; Data sizes:     COMMON   BANK0   BANK1   BANK3   BANK2
  2099 ;;      Params:         0       0       0       0       0
  2100 ;;      Locals:         0       0       0       0       0
  2101 ;;      Temps:          0       3       0       0       0
  2102 ;;      Totals:         0       3       0       0       0
  2103 ;;Total ram usage:        3 bytes
  2104 ;; Hardware stack levels used: 1
  2105 ;; Hardware stack levels required when called: 4
  2106 ;; This function calls:
  2107 ;;		_LCD_Clear
  2108 ;;		_LCD_String_xy
  2109 ;;		_LED_COLOR_ON
  2110 ;; This function is called by:
  2111 ;;		_main
  2112 ;; This function uses a non-reentrant model
  2113 ;;
  2114                           
  2115     12C6                     _function_eBloqueado:	
  2116                           ;psect for function _function_eBloqueado
  2117                           
  2118     12C6                     l3877:	
  2119                           ;incstack = 0
  2120                           ; Regs used in _function_eBloqueado: [wreg-fsr0h+status,2+status,0+btemp+1+pclath+cstack
      +                          ]
  2121                           
  2122                           
  2123                           ;Main_Seguridad.c: 149:     LCD_Clear();
  2124     12C6  160A  118A  219D  160A  118A  	fcall	_LCD_Clear
  2125     12CB                     l3879:
  2126                           
  2127                           ;Main_Seguridad.c: 150:     LCD_String_xy(0,0,"Sis Bloqueado");
  2128     12CB  01F7               	clrf	LCD_String_xy@pos
  2129     12CC  30A5               	movlw	(low ((STR_5-__stringbase)| (0+32768)))& (0+255)
  2130     12CD  00F8               	movwf	LCD_String_xy@msg
  2131     12CE  3080               	movlw	128
  2132     12CF  00F9               	movwf	LCD_String_xy@msg+1
  2133     12D0  3000               	movlw	0
  2134     12D1  160A  118A  224B  160A  118A  	fcall	_LCD_String_xy
  2135     12D6                     l3881:
  2136                           
  2137                           ;Main_Seguridad.c: 151:     LED_COLOR_ON(1,0,0);
  2138     12D6  01F2               	clrf	LED_COLOR_ON@green
  2139     12D7  01F3               	clrf	LED_COLOR_ON@blue
  2140     12D8  3001               	movlw	1
  2141     12D9  160A  118A  21E4  160A  118A  	fcall	_LED_COLOR_ON
  2142     12DE                     l3883:
  2143                           
  2144                           ;Main_Seguridad.c: 152:     _delay((unsigned long)((5000)*(8000000/4000.0)));
  2145     12DE  3033               	movlw	51
  2146     12DF  1283               	bcf	3,5	;RP0=0, select bank0
  2147     12E0  1303               	bcf	3,6	;RP1=0, select bank0
  2148     12E1  00A4               	movwf	??_function_eBloqueado+2
  2149     12E2  30BB               	movlw	187
  2150     12E3  00A3               	movwf	??_function_eBloqueado+1
  2151     12E4  30DF               	movlw	223
  2152     12E5  00A2               	movwf	??_function_eBloqueado
  2153     12E6                     u5237:
  2154     12E6  0BA2               	decfsz	??_function_eBloqueado,f
  2155     12E7  2AE6               	goto	u5237
  2156     12E8  0BA3               	decfsz	??_function_eBloqueado+1,f
  2157     12E9  2AE6               	goto	u5237
  2158     12EA  0BA4               	decfsz	??_function_eBloqueado+2,f
  2159     12EB  2AE6               	goto	u5237
  2160     12EC                     l3885:
  2161                           
  2162                           ;Main_Seguridad.c: 153:     LCD_Clear();
  2163     12EC  160A  118A  219D  160A  118A  	fcall	_LCD_Clear
  2164     12F1                     l3887:
  2165                           
  2166                           ;Main_Seguridad.c: 154:     intentos=0;
  2167     12F1  1683               	bsf	3,5	;RP0=1, select bank1
  2168     12F2  1303               	bcf	3,6	;RP1=0, select bank1
  2169     12F3  01E4               	clrf	_intentos^(0+128)
  2170     12F4                     l3889:
  2171                           
  2172                           ;Main_Seguridad.c: 155:     Estado = seguridad;
  2173     12F4  01FB               	clrf	_Estado
  2174     12F5                     l107:
  2175     12F5  0008               	return
  2176     12F6                     __end_of_function_eBloqueado:
  2177                           
  2178                           	psect	text4
  2179     13E2                     __ptext4:	
  2180 ;; *************** function _function_eAlarma *****************
  2181 ;; Defined at:
  2182 ;;		line 159 in file "Main_Seguridad.c"
  2183 ;; Parameters:    Size  Location     Type
  2184 ;;		None
  2185 ;; Auto vars:     Size  Location     Type
  2186 ;;  i               2    0[BANK0 ] int 
  2187 ;; Return value:  Size  Location     Type
  2188 ;;                  1    wreg      void 
  2189 ;; Registers used:
  2190 ;;		wreg, status,2, status,0, btemp+1, pclath, cstack
  2191 ;; Tracked objects:
  2192 ;;		On entry : 0/0
  2193 ;;		On exit  : 0/0
  2194 ;;		Unchanged: 0/0
  2195 ;; Data sizes:     COMMON   BANK0   BANK1   BANK3   BANK2
  2196 ;;      Params:         0       0       0       0       0
  2197 ;;      Locals:         0       2       0       0       0
  2198 ;;      Temps:          3       0       0       0       0
  2199 ;;      Totals:         3       2       0       0       0
  2200 ;;Total ram usage:        5 bytes
  2201 ;; Hardware stack levels used: 1
  2202 ;; Hardware stack levels required when called: 3
  2203 ;; This function calls:
  2204 ;;		_LCD_Clear
  2205 ;;		_LED_COLOR_ON
  2206 ;; This function is called by:
  2207 ;;		_main
  2208 ;; This function uses a non-reentrant model
  2209 ;;
  2210                           
  2211     13E2                     _function_eAlarma:	
  2212                           ;psect for function _function_eAlarma
  2213                           
  2214     13E2                     l3891:	
  2215                           ;incstack = 0
  2216                           ; Regs used in _function_eAlarma: [wreg+status,2+status,0+btemp+1+pclath+cstack]
  2217                           
  2218                           
  2219                           ;Main_Seguridad.c: 161:     for ( int i = 0; i<5; i++){
  2220     13E2  1283               	bcf	3,5	;RP0=0, select bank0
  2221     13E3  1303               	bcf	3,6	;RP1=0, select bank0
  2222     13E4  01A0               	clrf	function_eAlarma@i
  2223     13E5  01A1               	clrf	function_eAlarma@i+1
  2224     13E6                     l3897:
  2225                           
  2226                           ;Main_Seguridad.c: 162:         LED_COLOR_ON(1,0,0);
  2227     13E6  01F2               	clrf	LED_COLOR_ON@green
  2228     13E7  01F3               	clrf	LED_COLOR_ON@blue
  2229     13E8  3001               	movlw	1
  2230     13E9  160A  118A  21E4  160A  118A  	fcall	_LED_COLOR_ON
  2231     13EE                     l3899:
  2232                           
  2233                           ;Main_Seguridad.c: 163:         _delay((unsigned long)((500)*(8000000/4000.0)));
  2234     13EE  3006               	movlw	6
  2235     13EF  00F9               	movwf	??_function_eAlarma+2
  2236     13F0  3013               	movlw	19
  2237     13F1  00F8               	movwf	??_function_eAlarma+1
  2238     13F2  30AD               	movlw	173
  2239     13F3  00F7               	movwf	??_function_eAlarma
  2240     13F4                     u5247:
  2241     13F4  0BF7               	decfsz	??_function_eAlarma,f
  2242     13F5  2BF4               	goto	u5247
  2243     13F6  0BF8               	decfsz	??_function_eAlarma+1,f
  2244     13F7  2BF4               	goto	u5247
  2245     13F8  0BF9               	decfsz	??_function_eAlarma+2,f
  2246     13F9  2BF4               	goto	u5247
  2247     13FA  2BFB               	nop2
  2248     13FB                     l3901:
  2249                           
  2250                           ;Main_Seguridad.c: 164:         LED_COLOR_ON(0,0,0);
  2251     13FB  01F2               	clrf	LED_COLOR_ON@green
  2252     13FC  01F3               	clrf	LED_COLOR_ON@blue
  2253     13FD  3000               	movlw	0
  2254     13FE  160A  118A  21E4  160A  118A  	fcall	_LED_COLOR_ON
  2255                           
  2256                           ;Main_Seguridad.c: 165:         _delay((unsigned long)((500)*(8000000/4000.0)));
  2257     1403  3006               	movlw	6
  2258     1404  00F9               	movwf	??_function_eAlarma+2
  2259     1405  3013               	movlw	19
  2260     1406  00F8               	movwf	??_function_eAlarma+1
  2261     1407  30AD               	movlw	173
  2262     1408  00F7               	movwf	??_function_eAlarma
  2263     1409                     u5257:
  2264     1409  0BF7               	decfsz	??_function_eAlarma,f
  2265     140A  2C09               	goto	u5257
  2266     140B  0BF8               	decfsz	??_function_eAlarma+1,f
  2267     140C  2C09               	goto	u5257
  2268     140D  0BF9               	decfsz	??_function_eAlarma+2,f
  2269     140E  2C09               	goto	u5257
  2270     140F  2C10               	nop2
  2271                           
  2272                           ;Main_Seguridad.c: 166:     }
  2273     1410  3001               	movlw	1
  2274     1411  1283               	bcf	3,5	;RP0=0, select bank0
  2275     1412  1303               	bcf	3,6	;RP1=0, select bank0
  2276     1413  07A0               	addwf	function_eAlarma@i,f
  2277     1414  1803               	skipnc
  2278     1415  0AA1               	incf	function_eAlarma@i+1,f
  2279     1416  3000               	movlw	0
  2280     1417  07A1               	addwf	function_eAlarma@i+1,f
  2281     1418                     l3903:
  2282     1418  0821               	movf	function_eAlarma@i+1,w
  2283     1419  3A80               	xorlw	128
  2284     141A  00FF               	movwf	btemp+1
  2285     141B  3080               	movlw	128
  2286     141C  027F               	subwf	btemp+1,w
  2287     141D  1D03               	skipz
  2288     141E  2C21               	goto	u5145
  2289     141F  3005               	movlw	5
  2290     1420  0220               	subwf	function_eAlarma@i,w
  2291     1421                     u5145:
  2292     1421  1C03               	skipc
  2293     1422  2C24               	goto	u5141
  2294     1423  2C25               	goto	u5140
  2295     1424                     u5141:
  2296     1424  2BE6               	goto	l3897
  2297     1425                     u5140:
  2298     1425                     l3905:
  2299                           
  2300                           ;Main_Seguridad.c: 168:     LCD_Clear();
  2301     1425  160A  118A  219D  160A  118A  	fcall	_LCD_Clear
  2302     142A                     l3907:
  2303                           
  2304                           ;Main_Seguridad.c: 169:     Estado = monitoreo;
  2305     142A  01FB               	clrf	_Estado
  2306     142B  0AFB               	incf	_Estado,f
  2307     142C                     l112:
  2308     142C  0008               	return
  2309     142D                     __end_of_function_eAlarma:
  2310                           
  2311                           	psect	text5
  2312     172F                     __ptext5:	
  2313 ;; *************** function _function_clave_Seguridad *****************
  2314 ;; Defined at:
  2315 ;;		line 109 in file "Main_Seguridad.c"
  2316 ;; Parameters:    Size  Location     Type
  2317 ;;		None
  2318 ;; Auto vars:     Size  Location     Type
  2319 ;;  key             1   22[BANK0 ] unsigned char 
  2320 ;; Return value:  Size  Location     Type
  2321 ;;                  1    wreg      void 
  2322 ;; Registers used:
  2323 ;;		wreg, fsr0l, fsr0h, status,2, status,0, btemp+1, pclath, cstack
  2324 ;; Tracked objects:
  2325 ;;		On entry : 0/0
  2326 ;;		On exit  : 0/0
  2327 ;;		Unchanged: 0/0
  2328 ;; Data sizes:     COMMON   BANK0   BANK1   BANK3   BANK2
  2329 ;;      Params:         0       0       0       0       0
  2330 ;;      Locals:         0       1       0       0       0
  2331 ;;      Temps:          0       3       0       0       0
  2332 ;;      Totals:         0       4       0       0       0
  2333 ;;Total ram usage:        4 bytes
  2334 ;; Hardware stack levels used: 1
  2335 ;; Hardware stack levels required when called: 4
  2336 ;; This function calls:
  2337 ;;		_LCD_Char
  2338 ;;		_LCD_Clear
  2339 ;;		_LCD_Command
  2340 ;;		_LCD_String_xy
  2341 ;;		_LED_COLOR_ON
  2342 ;;		_keypad_getkey
  2343 ;;		_strncmp
  2344 ;; This function is called by:
  2345 ;;		_main
  2346 ;; This function uses a non-reentrant model
  2347 ;;
  2348                           
  2349     172F                     _function_clave_Seguridad:	
  2350                           ;psect for function _function_clave_Seguridad
  2351                           
  2352     172F                     l3797:	
  2353                           ;incstack = 0
  2354                           ; Regs used in _function_clave_Seguridad: [wreg-fsr0h+status,2+status,0+btemp+1+pclath+c
      +                          stack]
  2355                           
  2356                           
  2357                           ;Main_Seguridad.c: 110:     idx=0;
  2358     172F  1283               	bcf	3,5	;RP0=0, select bank0
  2359     1730  1303               	bcf	3,6	;RP1=0, select bank0
  2360     1731  01EF               	clrf	_idx
  2361     1732                     l3799:
  2362                           
  2363                           ;Main_Seguridad.c: 111:     LED_COLOR_ON(0,0,0);
  2364     1732  01F2               	clrf	LED_COLOR_ON@green
  2365     1733  01F3               	clrf	LED_COLOR_ON@blue
  2366     1734  3000               	movlw	0
  2367     1735  160A  118A  21E4  160A  118A  	fcall	_LED_COLOR_ON
  2368     173A                     l3801:
  2369     173A                     l3803:
  2370                           
  2371                           ;Main_Seguridad.c: 113:     if ( intentos < 3) {
  2372     173A  3003               	movlw	3
  2373     173B  1683               	bsf	3,5	;RP0=1, select bank1
  2374     173C  1303               	bcf	3,6	;RP1=0, select bank1
  2375     173D  0264               	subwf	_intentos^(0+128),w
  2376     173E  1803               	skipnc
  2377     173F  2F41               	goto	u5071
  2378     1740  2F42               	goto	u5070
  2379     1741                     u5071:
  2380     1741  2FFD               	goto	l3847
  2381     1742                     u5070:
  2382     1742                     l3805:
  2383                           
  2384                           ;Main_Seguridad.c: 114:         LCD_Clear();
  2385     1742  160A  118A  219D  160A  118A  	fcall	_LCD_Clear
  2386     1747                     l3807:
  2387                           
  2388                           ;Main_Seguridad.c: 115:         LCD_String_xy(0,0,"Press a Key");
  2389     1747  01F7               	clrf	LCD_String_xy@pos
  2390     1748  30B3               	movlw	(low ((STR_2-__stringbase)| (0+32768)))& (0+255)
  2391     1749  00F8               	movwf	LCD_String_xy@msg
  2392     174A  3080               	movlw	128
  2393     174B  00F9               	movwf	LCD_String_xy@msg+1
  2394     174C  3000               	movlw	0
  2395     174D  160A  118A  224B  160A  118A  	fcall	_LCD_String_xy
  2396     1752                     l3809:
  2397                           
  2398                           ;Main_Seguridad.c: 116:         LCD_Command(0xC0);
  2399     1752  30C0               	movlw	192
  2400     1753  160A  118A  22F6  160A  118A  	fcall	_LCD_Command
  2401     1758                     l98:	
  2402                           ;Main_Seguridad.c: 117:         do{
  2403                           
  2404                           
  2405                           ;Main_Seguridad.c: 118:             key = keypad_getkey();
  2406     1758  120A  158A  224C  160A  118A  	fcall	_keypad_getkey
  2407     175D  1283               	bcf	3,5	;RP0=0, select bank0
  2408     175E  1303               	bcf	3,6	;RP1=0, select bank0
  2409     175F  00B6               	movwf	function_clave_Seguridad@key
  2410     1760                     l3811:
  2411                           
  2412                           ;Main_Seguridad.c: 119:             if(key != 0){
  2413     1760  0836               	movf	function_clave_Seguridad@key,w
  2414     1761  1903               	btfsc	3,2
  2415     1762  2F64               	goto	u5081
  2416     1763  2F65               	goto	u5080
  2417     1764                     u5081:
  2418     1764  2F77               	goto	l3819
  2419     1765                     u5080:
  2420     1765                     l3813:
  2421                           
  2422                           ;Main_Seguridad.c: 120:                 LCD_Char('*');
  2423     1765  302A               	movlw	42
  2424     1766  160A  118A  232C  160A  118A  	fcall	_LCD_Char
  2425     176B                     l3815:
  2426                           
  2427                           ;Main_Seguridad.c: 122:                 pass_user[idx++] = key;
  2428     176B  1283               	bcf	3,5	;RP0=0, select bank0
  2429     176C  1303               	bcf	3,6	;RP1=0, select bank0
  2430     176D  086F               	movf	_idx,w
  2431     176E  3EE7               	addlw	(low (_pass_user| 0))& (0+255)
  2432     176F  0084               	movwf	4
  2433     1770  0836               	movf	function_clave_Seguridad@key,w
  2434     1771  1383               	bcf	3,7	;select IRP bank1
  2435     1772  0080               	movwf	0
  2436     1773                     l3817:
  2437     1773  3001               	movlw	1
  2438     1774  00FF               	movwf	btemp+1
  2439     1775  087F               	movf	btemp+1,w
  2440     1776  07EF               	addwf	_idx,f
  2441     1777                     l3819:
  2442                           
  2443                           ;Main_Seguridad.c: 124:             _delay((unsigned long)((100)*(8000000/4000.0)));
  2444     1777  3002               	movlw	2
  2445     1778  1283               	bcf	3,5	;RP0=0, select bank0
  2446     1779  1303               	bcf	3,6	;RP1=0, select bank0
  2447     177A  00B5               	movwf	??_function_clave_Seguridad+2
  2448     177B  3004               	movlw	4
  2449     177C  00B4               	movwf	??_function_clave_Seguridad+1
  2450     177D  30B9               	movlw	185
  2451     177E  00B3               	movwf	??_function_clave_Seguridad
  2452     177F                     u5267:
  2453     177F  0BB3               	decfsz	??_function_clave_Seguridad,f
  2454     1780  2F7F               	goto	u5267
  2455     1781  0BB4               	decfsz	??_function_clave_Seguridad+1,f
  2456     1782  2F7F               	goto	u5267
  2457     1783  0BB5               	decfsz	??_function_clave_Seguridad+2,f
  2458     1784  2F7F               	goto	u5267
  2459     1785  2F86               	nop2
  2460     1786                     l3821:
  2461                           
  2462                           ;Main_Seguridad.c: 125:         }while(idx < 5);
  2463     1786  3005               	movlw	5
  2464     1787  1283               	bcf	3,5	;RP0=0, select bank0
  2465     1788  1303               	bcf	3,6	;RP1=0, select bank0
  2466     1789  026F               	subwf	_idx,w
  2467     178A  1C03               	skipc
  2468     178B  2F8D               	goto	u5091
  2469     178C  2F8E               	goto	u5090
  2470     178D                     u5091:
  2471     178D  2F58               	goto	l98
  2472     178E                     u5090:
  2473     178E                     l3823:
  2474                           
  2475                           ;Main_Seguridad.c: 127:         if(strncmp(pass_user,password,4)==0){
  2476     178E  302F               	movlw	(low ((_password-__stringbase)| (0+32768)))& (0+255)
  2477     178F  00F2               	movwf	strncmp@s2
  2478     1790  3004               	movlw	4
  2479     1791  00F3               	movwf	strncmp@len
  2480     1792  3000               	movlw	0
  2481     1793  00F4               	movwf	strncmp@len+1
  2482     1794  30E7               	movlw	(low (_pass_user| 0))& (0+255)
  2483     1795  120A  118A  27B6  160A  118A  	fcall	_strncmp
  2484     179A  0872               	movf	?_strncmp,w
  2485     179B  0473               	iorwf	?_strncmp+1,w
  2486     179C  1D03               	btfss	3,2
  2487     179D  2F9F               	goto	u5101
  2488     179E  2FA0               	goto	u5100
  2489     179F                     u5101:
  2490     179F  2FCE               	goto	l3837
  2491     17A0                     u5100:
  2492     17A0                     l3825:
  2493                           
  2494                           ;Main_Seguridad.c: 128:             LCD_Clear();
  2495     17A0  160A  118A  219D  160A  118A  	fcall	_LCD_Clear
  2496     17A5                     l3827:
  2497                           
  2498                           ;Main_Seguridad.c: 129:             LCD_String_xy(0,0,"Clave Correcta");
  2499     17A5  01F7               	clrf	LCD_String_xy@pos
  2500     17A6  3096               	movlw	(low ((STR_3-__stringbase)| (0+32768)))& (0+255)
  2501     17A7  00F8               	movwf	LCD_String_xy@msg
  2502     17A8  3080               	movlw	128
  2503     17A9  00F9               	movwf	LCD_String_xy@msg+1
  2504     17AA  3000               	movlw	0
  2505     17AB  160A  118A  224B  160A  118A  	fcall	_LCD_String_xy
  2506     17B0                     l3829:
  2507                           
  2508                           ;Main_Seguridad.c: 130:             LED_COLOR_ON(0,1,0);
  2509     17B0  01F2               	clrf	LED_COLOR_ON@green
  2510     17B1  0AF2               	incf	LED_COLOR_ON@green,f
  2511     17B2  01F3               	clrf	LED_COLOR_ON@blue
  2512     17B3  3000               	movlw	0
  2513     17B4  160A  118A  21E4  160A  118A  	fcall	_LED_COLOR_ON
  2514     17B9                     l3831:
  2515                           
  2516                           ;Main_Seguridad.c: 131:             intentos = 0;
  2517     17B9  1683               	bsf	3,5	;RP0=1, select bank1
  2518     17BA  1303               	bcf	3,6	;RP1=0, select bank1
  2519     17BB  01E4               	clrf	_intentos^(0+128)
  2520     17BC                     l3833:
  2521                           
  2522                           ;Main_Seguridad.c: 132:             _delay((unsigned long)((2000)*(8000000/4000.0)));
  2523     17BC  3015               	movlw	21
  2524     17BD  1283               	bcf	3,5	;RP0=0, select bank0
  2525     17BE  1303               	bcf	3,6	;RP1=0, select bank0
  2526     17BF  00B5               	movwf	??_function_clave_Seguridad+2
  2527     17C0  304B               	movlw	75
  2528     17C1  00B4               	movwf	??_function_clave_Seguridad+1
  2529     17C2  30BD               	movlw	189
  2530     17C3  00B3               	movwf	??_function_clave_Seguridad
  2531     17C4                     u5277:
  2532     17C4  0BB3               	decfsz	??_function_clave_Seguridad,f
  2533     17C5  2FC4               	goto	u5277
  2534     17C6  0BB4               	decfsz	??_function_clave_Seguridad+1,f
  2535     17C7  2FC4               	goto	u5277
  2536     17C8  0BB5               	decfsz	??_function_clave_Seguridad+2,f
  2537     17C9  2FC4               	goto	u5277
  2538     17CA  2FCB               	nop2
  2539     17CB                     l3835:
  2540                           
  2541                           ;Main_Seguridad.c: 133:             Estado=monitoreo;
  2542     17CB  01FB               	clrf	_Estado
  2543     17CC  0AFB               	incf	_Estado,f
  2544                           
  2545                           ;Main_Seguridad.c: 134:         }
  2546     17CD  2FFF               	goto	l104
  2547     17CE                     l3837:
  2548                           
  2549                           ;Main_Seguridad.c: 136:             LCD_Clear();
  2550     17CE  160A  118A  219D  160A  118A  	fcall	_LCD_Clear
  2551     17D3                     l3839:
  2552                           
  2553                           ;Main_Seguridad.c: 137:             LCD_String_xy(0,0,"Clave Incorrecta");
  2554     17D3  01F7               	clrf	LCD_String_xy@pos
  2555     17D4  3074               	movlw	(low ((STR_4-__stringbase)| (0+32768)))& (0+255)
  2556     17D5  00F8               	movwf	LCD_String_xy@msg
  2557     17D6  3080               	movlw	128
  2558     17D7  00F9               	movwf	LCD_String_xy@msg+1
  2559     17D8  3000               	movlw	0
  2560     17D9  160A  118A  224B  160A  118A  	fcall	_LCD_String_xy
  2561     17DE                     l3841:
  2562                           
  2563                           ;Main_Seguridad.c: 138:             LED_COLOR_ON(0,0,1);
  2564     17DE  01F2               	clrf	LED_COLOR_ON@green
  2565     17DF  01F3               	clrf	LED_COLOR_ON@blue
  2566     17E0  0AF3               	incf	LED_COLOR_ON@blue,f
  2567     17E1  3000               	movlw	0
  2568     17E2  160A  118A  21E4  160A  118A  	fcall	_LED_COLOR_ON
  2569     17E7                     l3843:
  2570                           
  2571                           ;Main_Seguridad.c: 139:             intentos++;
  2572     17E7  3001               	movlw	1
  2573     17E8  00FF               	movwf	btemp+1
  2574     17E9  087F               	movf	btemp+1,w
  2575     17EA  1683               	bsf	3,5	;RP0=1, select bank1
  2576     17EB  1303               	bcf	3,6	;RP1=0, select bank1
  2577     17EC  07E4               	addwf	_intentos^(0+128),f
  2578     17ED                     l3845:
  2579                           
  2580                           ;Main_Seguridad.c: 140:             _delay((unsigned long)((800)*(8000000/4000.0)));
  2581     17ED  3009               	movlw	9
  2582     17EE  1283               	bcf	3,5	;RP0=0, select bank0
  2583     17EF  1303               	bcf	3,6	;RP1=0, select bank0
  2584     17F0  00B5               	movwf	??_function_clave_Seguridad+2
  2585     17F1  301E               	movlw	30
  2586     17F2  00B4               	movwf	??_function_clave_Seguridad+1
  2587     17F3  30E3               	movlw	227
  2588     17F4  00B3               	movwf	??_function_clave_Seguridad
  2589     17F5                     u5287:
  2590     17F5  0BB3               	decfsz	??_function_clave_Seguridad,f
  2591     17F6  2FF5               	goto	u5287
  2592     17F7  0BB4               	decfsz	??_function_clave_Seguridad+1,f
  2593     17F8  2FF5               	goto	u5287
  2594     17F9  0BB5               	decfsz	??_function_clave_Seguridad+2,f
  2595     17FA  2FF5               	goto	u5287
  2596     17FB  2FFC               	nop2
  2597     17FC  2FFF               	goto	l104
  2598     17FD                     l3847:
  2599                           
  2600                           ;Main_Seguridad.c: 144:         Estado= bloqueado;
  2601     17FD  3002               	movlw	2
  2602     17FE  00FB               	movwf	_Estado
  2603     17FF                     l104:
  2604     17FF  0008               	return
  2605     1800                     __end_of_function_clave_Seguridad:
  2606                           
  2607                           	psect	text6
  2608     07B6                     __ptext6:	
  2609 ;; *************** function _strncmp *****************
  2610 ;; Defined at:
  2611 ;;		line 4 in file "C:\Program Files\Microchip\xc8\v2.41\pic\sources\c90\common\strncmp.c"
  2612 ;; Parameters:    Size  Location     Type
  2613 ;;  s1              1    wreg     PTR const unsigned char 
  2614 ;;		 -> pass_user(6), 
  2615 ;;  s2              1    2[COMMON] PTR const unsigned char 
  2616 ;;		 -> password(6), 
  2617 ;;  len             2    3[COMMON] unsigned int 
  2618 ;; Auto vars:     Size  Location     Type
  2619 ;;  s1              1    7[COMMON] PTR const unsigned char 
  2620 ;;		 -> pass_user(6), 
  2621 ;; Return value:  Size  Location     Type
  2622 ;;                  2    2[COMMON] int 
  2623 ;; Registers used:
  2624 ;;		wreg, fsr0l, fsr0h, status,2, status,0, btemp+1, pclath
  2625 ;; Tracked objects:
  2626 ;;		On entry : 0/0
  2627 ;;		On exit  : 0/0
  2628 ;;		Unchanged: 0/0
  2629 ;; Data sizes:     COMMON   BANK0   BANK1   BANK3   BANK2
  2630 ;;      Params:         3       0       0       0       0
  2631 ;;      Locals:         1       0       0       0       0
  2632 ;;      Temps:          2       0       0       0       0
  2633 ;;      Totals:         6       0       0       0       0
  2634 ;;Total ram usage:        6 bytes
  2635 ;; Hardware stack levels used: 2
  2636 ;; Hardware stack levels required when called: 1
  2637 ;; This function calls:
  2638 ;;		Nothing
  2639 ;; This function is called by:
  2640 ;;		_function_clave_Seguridad
  2641 ;; This function uses a non-reentrant model
  2642 ;;
  2643                           
  2644     07B6                     _strncmp:	
  2645                           ;psect for function _strncmp
  2646                           
  2647                           
  2648                           ;incstack = 0
  2649                           ; Regs used in _strncmp: [wreg-fsr0h+status,2+status,0+btemp+1+pclath]
  2650                           ;strncmp@s1 stored from wreg
  2651     07B6  00F7               	movwf	strncmp@s1
  2652     07B7                     l2941:
  2653     07B7  2FEB               	goto	l2953
  2654     07B8                     l2943:
  2655     07B8  0877               	movf	strncmp@s1,w
  2656     07B9  0084               	movwf	4
  2657     07BA  1383               	bcf	3,7	;select IRP bank0
  2658     07BB  0800               	movf	0,w
  2659     07BC  1903               	btfsc	3,2
  2660     07BD  2FBF               	goto	u3851
  2661     07BE  2FC0               	goto	u3850
  2662     07BF                     u3851:
  2663     07BF  2FD0               	goto	l2947
  2664     07C0                     u3850:
  2665     07C0                     l2945:
  2666     07C0  0872               	movf	strncmp@s2,w
  2667     07C1  0084               	movwf	4
  2668     07C2  120A  158A  200A  120A  118A  	fcall	stringdir
  2669     07C7  00F5               	movwf	??_strncmp
  2670     07C8  0877               	movf	strncmp@s1,w
  2671     07C9  0084               	movwf	4
  2672     07CA  0800               	movf	0,w
  2673     07CB  0675               	xorwf	??_strncmp,w
  2674     07CC  1903               	skipnz
  2675     07CD  2FCF               	goto	u3861
  2676     07CE  2FD0               	goto	u3860
  2677     07CF                     u3861:
  2678     07CF  2FE3               	goto	l2951
  2679     07D0                     u3860:
  2680     07D0                     l2947:
  2681     07D0  0872               	movf	strncmp@s2,w
  2682     07D1  0084               	movwf	4
  2683     07D2  120A  158A  200A  120A  118A  	fcall	stringdir
  2684     07D7  00F5               	movwf	??_strncmp
  2685     07D8  0877               	movf	strncmp@s1,w
  2686     07D9  0084               	movwf	4
  2687     07DA  0800               	movf	0,w
  2688     07DB  00F6               	movwf	??_strncmp+1
  2689     07DC  0875               	movf	??_strncmp,w
  2690     07DD  0276               	subwf	??_strncmp+1,w
  2691     07DE  00F2               	movwf	?_strncmp
  2692     07DF  01F3               	clrf	?_strncmp+1
  2693     07E0  1C03               	skipc
  2694     07E1  03F3               	decf	?_strncmp+1,f
  2695     07E2  2FFB               	goto	l906
  2696     07E3                     l2951:
  2697     07E3  3001               	movlw	1
  2698     07E4  00FF               	movwf	btemp+1
  2699     07E5  087F               	movf	btemp+1,w
  2700     07E6  07F7               	addwf	strncmp@s1,f
  2701     07E7  3001               	movlw	1
  2702     07E8  00FF               	movwf	btemp+1
  2703     07E9  087F               	movf	btemp+1,w
  2704     07EA  07F2               	addwf	strncmp@s2,f
  2705     07EB                     l2953:
  2706     07EB  3001               	movlw	1
  2707     07EC  02F3               	subwf	strncmp@len,f
  2708     07ED  3000               	movlw	0
  2709     07EE  1C03               	skipc
  2710     07EF  03F4               	decf	strncmp@len+1,f
  2711     07F0  02F4               	subwf	strncmp@len+1,f
  2712     07F1  0A73               	incf	strncmp@len,w
  2713     07F2  1D03               	skipz
  2714     07F3  2FF8               	goto	u3871
  2715     07F4  0A74               	incf	strncmp@len+1,w
  2716     07F5  1D03               	btfss	3,2
  2717     07F6  2FF8               	goto	u3871
  2718     07F7  2FF9               	goto	u3870
  2719     07F8                     u3871:
  2720     07F8  2FB8               	goto	l2943
  2721     07F9                     u3870:
  2722     07F9                     l2955:
  2723     07F9  01F2               	clrf	?_strncmp
  2724     07FA  01F3               	clrf	?_strncmp+1
  2725     07FB                     l906:
  2726     07FB  0008               	return
  2727     07FC                     __end_of_strncmp:
  2728                           
  2729                           	psect	text7
  2730     0A4C                     __ptext7:	
  2731 ;; *************** function _keypad_getkey *****************
  2732 ;; Defined at:
  2733 ;;		line 59 in file "keypad.c"
  2734 ;; Parameters:    Size  Location     Type
  2735 ;;		None
  2736 ;; Auto vars:     Size  Location     Type
  2737 ;;  letras         16    0[BANK0 ] unsigned char [4][4]
  2738 ;;  i               2   17[BANK0 ] int 
  2739 ;;  valor           1   16[BANK0 ] unsigned char 
  2740 ;; Return value:  Size  Location     Type
  2741 ;;                  1    wreg      unsigned char 
  2742 ;; Registers used:
  2743 ;;		wreg, fsr0l, fsr0h, status,2, status,0, btemp+1
  2744 ;; Tracked objects:
  2745 ;;		On entry : 0/0
  2746 ;;		On exit  : 0/0
  2747 ;;		Unchanged: 0/0
  2748 ;; Data sizes:     COMMON   BANK0   BANK1   BANK3   BANK2
  2749 ;;      Params:         0       0       0       0       0
  2750 ;;      Locals:         0      19       0       0       0
  2751 ;;      Temps:          4       0       0       0       0
  2752 ;;      Totals:         4      19       0       0       0
  2753 ;;Total ram usage:       23 bytes
  2754 ;; Hardware stack levels used: 1
  2755 ;; Hardware stack levels required when called: 1
  2756 ;; This function calls:
  2757 ;;		Nothing
  2758 ;; This function is called by:
  2759 ;;		_function_clave_Seguridad
  2760 ;; This function uses a non-reentrant model
  2761 ;;
  2762                           
  2763     0A4C                     _keypad_getkey:	
  2764                           ;psect for function _keypad_getkey
  2765                           
  2766     0A4C                     l2841:	
  2767                           ;incstack = 0
  2768                           ; Regs used in _keypad_getkey: [wreg-fsr0h+status,2+status,0+btemp+1]
  2769                           
  2770                           
  2771                           ;keypad.c: 61: char letras[4][4]={ {'1','2','3','A'},
  2772     0A4C  3020               	movlw	keypad_getkey@letras& (0+255)
  2773     0A4D  0084               	movwf	4
  2774     0A4E  30A1               	movlw	low keypad_getkey@F1296
  2775     0A4F  00F2               	movwf	??_keypad_getkey
  2776     0A50  0804               	movf	4,w
  2777     0A51  00F3               	movwf	??_keypad_getkey+1
  2778     0A52  3010               	movlw	16
  2779     0A53  00F4               	movwf	??_keypad_getkey+2
  2780     0A54                     u3630:
  2781     0A54  0872               	movf	??_keypad_getkey,w
  2782     0A55  0084               	movwf	4
  2783     0A56  1783               	bsf	3,7	;select IRP bank3
  2784     0A57  0800               	movf	0,w
  2785     0A58  00F5               	movwf	??_keypad_getkey+3
  2786     0A59  0AF2               	incf	??_keypad_getkey,f
  2787     0A5A  0873               	movf	??_keypad_getkey+1,w
  2788     0A5B  0084               	movwf	4
  2789     0A5C  1383               	bcf	3,7	;select IRP bank0
  2790     0A5D  0875               	movf	??_keypad_getkey+3,w
  2791     0A5E  0080               	movwf	0
  2792     0A5F  0AF3               	incf	??_keypad_getkey+1,f
  2793     0A60  0BF4               	decfsz	??_keypad_getkey+2,f
  2794     0A61  2A54               	goto	u3630
  2795     0A62                     l2843:
  2796     0A62                     l2845:
  2797                           
  2798                           ;keypad.c: 66: char valor=0;
  2799     0A62  1283               	bcf	3,5	;RP0=0, select bank0
  2800     0A63  1303               	bcf	3,6	;RP1=0, select bank0
  2801     0A64  01B0               	clrf	keypad_getkey@valor
  2802     0A65                     l2847:
  2803                           
  2804                           ;keypad.c: 68: for(i=0;i<4;i++){
  2805     0A65  01B1               	clrf	keypad_getkey@i
  2806     0A66  01B2               	clrf	keypad_getkey@i+1
  2807     0A67                     l2853:
  2808                           
  2809                           ;keypad.c: 70:    if(i==0){
  2810     0A67  1283               	bcf	3,5	;RP0=0, select bank0
  2811     0A68  1303               	bcf	3,6	;RP1=0, select bank0
  2812     0A69  0831               	movf	keypad_getkey@i,w
  2813     0A6A  0432               	iorwf	keypad_getkey@i+1,w
  2814     0A6B  1D03               	btfss	3,2
  2815     0A6C  2A6E               	goto	u3641
  2816     0A6D  2A6F               	goto	u3640
  2817     0A6E                     u3641:
  2818     0A6E  2A94               	goto	l2873
  2819     0A6F                     u3640:
  2820     0A6F                     l2855:
  2821                           
  2822                           ;keypad.c: 72:       PORTB = (1<<7)|(1<<6)|(1<<5)|(1<<4)|(1<<3)|(1<<2)|(1<<1)|(0<<0);
  2823     0A6F  30FE               	movlw	254
  2824     0A70  0086               	movwf	6	;volatile
  2825                           
  2826                           ;keypad.c: 73:       _delay((unsigned long)((100)*(8000000/4000000.0)));
  2827     0A71  3042               	movlw	66
  2828     0A72  00F2               	movwf	??_keypad_getkey
  2829     0A73                     u5297:
  2830     0A73  0BF2               	decfsz	??_keypad_getkey,f
  2831     0A74  2A73               	goto	u5297
  2832     0A75  0000               	nop
  2833                           
  2834                           ;keypad.c: 74:       while (!(PORTB & (1<<4))){valor=letras[0][0];}
  2835     0A76  2A79               	goto	l2859
  2836     0A77                     l2857:
  2837     0A77  0820               	movf	keypad_getkey@letras,w
  2838     0A78  00B0               	movwf	keypad_getkey@valor
  2839     0A79                     l2859:
  2840     0A79  1283               	bcf	3,5	;RP0=0, select bank0
  2841     0A7A  1303               	bcf	3,6	;RP1=0, select bank0
  2842     0A7B  1E06               	btfss	6,4	;volatile
  2843     0A7C  2A7E               	goto	u3651
  2844     0A7D  2A7F               	goto	u3650
  2845     0A7E                     u3651:
  2846     0A7E  2A77               	goto	l2857
  2847     0A7F                     u3650:
  2848     0A7F  2A82               	goto	l2863
  2849     0A80                     l2861:
  2850     0A80  0821               	movf	keypad_getkey@letras+1,w
  2851     0A81  00B0               	movwf	keypad_getkey@valor
  2852     0A82                     l2863:
  2853     0A82  1E86               	btfss	6,5	;volatile
  2854     0A83  2A85               	goto	u3661
  2855     0A84  2A86               	goto	u3660
  2856     0A85                     u3661:
  2857     0A85  2A80               	goto	l2861
  2858     0A86                     u3660:
  2859     0A86  2A89               	goto	l2867
  2860     0A87                     l2865:
  2861     0A87  0822               	movf	keypad_getkey@letras+2,w
  2862     0A88  00B0               	movwf	keypad_getkey@valor
  2863     0A89                     l2867:
  2864     0A89  1F06               	btfss	6,6	;volatile
  2865     0A8A  2A8C               	goto	u3671
  2866     0A8B  2A8D               	goto	u3670
  2867     0A8C                     u3671:
  2868     0A8C  2A87               	goto	l2865
  2869     0A8D                     u3670:
  2870     0A8D  2A90               	goto	l2871
  2871     0A8E                     l2869:
  2872     0A8E  0823               	movf	keypad_getkey@letras+3,w
  2873     0A8F  00B0               	movwf	keypad_getkey@valor
  2874     0A90                     l2871:
  2875     0A90  1F86               	btfss	6,7	;volatile
  2876     0A91  2A93               	goto	u3681
  2877     0A92  2A94               	goto	u3680
  2878     0A93                     u3681:
  2879     0A93  2A8E               	goto	l2869
  2880     0A94                     u3680:
  2881     0A94                     l2873:
  2882                           
  2883                           ;keypad.c: 80:    if(i==1){
  2884     0A94  0331               	decf	keypad_getkey@i,w
  2885     0A95  0432               	iorwf	keypad_getkey@i+1,w
  2886     0A96  1D03               	btfss	3,2
  2887     0A97  2A99               	goto	u3691
  2888     0A98  2A9A               	goto	u3690
  2889     0A99                     u3691:
  2890     0A99  2ABF               	goto	l2893
  2891     0A9A                     u3690:
  2892     0A9A                     l2875:
  2893                           
  2894                           ;keypad.c: 81:       PORTB = (1<<7)|(1<<6)|(1<<5)|(1<<4)|(1<<3)|(1<<2)|(0<<1)|(1<<0);
  2895     0A9A  30FD               	movlw	253
  2896     0A9B  0086               	movwf	6	;volatile
  2897                           
  2898                           ;keypad.c: 82:       _delay((unsigned long)((100)*(8000000/4000000.0)));
  2899     0A9C  3042               	movlw	66
  2900     0A9D  00F2               	movwf	??_keypad_getkey
  2901     0A9E                     u5307:
  2902     0A9E  0BF2               	decfsz	??_keypad_getkey,f
  2903     0A9F  2A9E               	goto	u5307
  2904     0AA0  0000               	nop
  2905                           
  2906                           ;keypad.c: 83:       while (!(PORTB & (1<<4))){valor=letras[1][0];}
  2907     0AA1  2AA4               	goto	l2879
  2908     0AA2                     l2877:
  2909     0AA2  0824               	movf	keypad_getkey@letras+4,w
  2910     0AA3  00B0               	movwf	keypad_getkey@valor
  2911     0AA4                     l2879:
  2912     0AA4  1283               	bcf	3,5	;RP0=0, select bank0
  2913     0AA5  1303               	bcf	3,6	;RP1=0, select bank0
  2914     0AA6  1E06               	btfss	6,4	;volatile
  2915     0AA7  2AA9               	goto	u3701
  2916     0AA8  2AAA               	goto	u3700
  2917     0AA9                     u3701:
  2918     0AA9  2AA2               	goto	l2877
  2919     0AAA                     u3700:
  2920     0AAA  2AAD               	goto	l2883
  2921     0AAB                     l2881:
  2922     0AAB  0825               	movf	keypad_getkey@letras+5,w
  2923     0AAC  00B0               	movwf	keypad_getkey@valor
  2924     0AAD                     l2883:
  2925     0AAD  1E86               	btfss	6,5	;volatile
  2926     0AAE  2AB0               	goto	u3711
  2927     0AAF  2AB1               	goto	u3710
  2928     0AB0                     u3711:
  2929     0AB0  2AAB               	goto	l2881
  2930     0AB1                     u3710:
  2931     0AB1  2AB4               	goto	l2887
  2932     0AB2                     l2885:
  2933     0AB2  0826               	movf	keypad_getkey@letras+6,w
  2934     0AB3  00B0               	movwf	keypad_getkey@valor
  2935     0AB4                     l2887:
  2936     0AB4  1F06               	btfss	6,6	;volatile
  2937     0AB5  2AB7               	goto	u3721
  2938     0AB6  2AB8               	goto	u3720
  2939     0AB7                     u3721:
  2940     0AB7  2AB2               	goto	l2885
  2941     0AB8                     u3720:
  2942     0AB8  2ABB               	goto	l2891
  2943     0AB9                     l2889:
  2944     0AB9  0827               	movf	keypad_getkey@letras+7,w
  2945     0ABA  00B0               	movwf	keypad_getkey@valor
  2946     0ABB                     l2891:
  2947     0ABB  1F86               	btfss	6,7	;volatile
  2948     0ABC  2ABE               	goto	u3731
  2949     0ABD  2ABF               	goto	u3730
  2950     0ABE                     u3731:
  2951     0ABE  2AB9               	goto	l2889
  2952     0ABF                     u3730:
  2953     0ABF                     l2893:
  2954                           
  2955                           ;keypad.c: 89:    if(i==2){
  2956     0ABF  3002               	movlw	2
  2957     0AC0  0631               	xorwf	keypad_getkey@i,w
  2958     0AC1  0432               	iorwf	keypad_getkey@i+1,w
  2959     0AC2  1D03               	btfss	3,2
  2960     0AC3  2AC5               	goto	u3741
  2961     0AC4  2AC6               	goto	u3740
  2962     0AC5                     u3741:
  2963     0AC5  2AEB               	goto	l2913
  2964     0AC6                     u3740:
  2965     0AC6                     l2895:
  2966                           
  2967                           ;keypad.c: 90:       PORTB = (1<<7)|(1<<6)|(1<<5)|(1<<4)|(1<<3)|(0<<2)|(1<<1)|(1<<0);
  2968     0AC6  30FB               	movlw	251
  2969     0AC7  0086               	movwf	6	;volatile
  2970                           
  2971                           ;keypad.c: 91:       _delay((unsigned long)((100)*(8000000/4000000.0)));
  2972     0AC8  3042               	movlw	66
  2973     0AC9  00F2               	movwf	??_keypad_getkey
  2974     0ACA                     u5317:
  2975     0ACA  0BF2               	decfsz	??_keypad_getkey,f
  2976     0ACB  2ACA               	goto	u5317
  2977     0ACC  0000               	nop
  2978                           
  2979                           ;keypad.c: 92:       while (!(PORTB & (1<<4))){valor=letras[2][0];}
  2980     0ACD  2AD0               	goto	l2899
  2981     0ACE                     l2897:
  2982     0ACE  0828               	movf	keypad_getkey@letras+8,w
  2983     0ACF  00B0               	movwf	keypad_getkey@valor
  2984     0AD0                     l2899:
  2985     0AD0  1283               	bcf	3,5	;RP0=0, select bank0
  2986     0AD1  1303               	bcf	3,6	;RP1=0, select bank0
  2987     0AD2  1E06               	btfss	6,4	;volatile
  2988     0AD3  2AD5               	goto	u3751
  2989     0AD4  2AD6               	goto	u3750
  2990     0AD5                     u3751:
  2991     0AD5  2ACE               	goto	l2897
  2992     0AD6                     u3750:
  2993     0AD6  2AD9               	goto	l2903
  2994     0AD7                     l2901:
  2995     0AD7  0829               	movf	keypad_getkey@letras+9,w
  2996     0AD8  00B0               	movwf	keypad_getkey@valor
  2997     0AD9                     l2903:
  2998     0AD9  1E86               	btfss	6,5	;volatile
  2999     0ADA  2ADC               	goto	u3761
  3000     0ADB  2ADD               	goto	u3760
  3001     0ADC                     u3761:
  3002     0ADC  2AD7               	goto	l2901
  3003     0ADD                     u3760:
  3004     0ADD  2AE0               	goto	l2907
  3005     0ADE                     l2905:
  3006     0ADE  082A               	movf	keypad_getkey@letras+10,w
  3007     0ADF  00B0               	movwf	keypad_getkey@valor
  3008     0AE0                     l2907:
  3009     0AE0  1F06               	btfss	6,6	;volatile
  3010     0AE1  2AE3               	goto	u3771
  3011     0AE2  2AE4               	goto	u3770
  3012     0AE3                     u3771:
  3013     0AE3  2ADE               	goto	l2905
  3014     0AE4                     u3770:
  3015     0AE4  2AE7               	goto	l2911
  3016     0AE5                     l2909:
  3017     0AE5  082B               	movf	keypad_getkey@letras+11,w
  3018     0AE6  00B0               	movwf	keypad_getkey@valor
  3019     0AE7                     l2911:
  3020     0AE7  1F86               	btfss	6,7	;volatile
  3021     0AE8  2AEA               	goto	u3781
  3022     0AE9  2AEB               	goto	u3780
  3023     0AEA                     u3781:
  3024     0AEA  2AE5               	goto	l2909
  3025     0AEB                     u3780:
  3026     0AEB                     l2913:
  3027                           
  3028                           ;keypad.c: 98:    if(i==3){
  3029     0AEB  3003               	movlw	3
  3030     0AEC  0631               	xorwf	keypad_getkey@i,w
  3031     0AED  0432               	iorwf	keypad_getkey@i+1,w
  3032     0AEE  1D03               	btfss	3,2
  3033     0AEF  2AF1               	goto	u3791
  3034     0AF0  2AF2               	goto	u3790
  3035     0AF1                     u3791:
  3036     0AF1  2B17               	goto	l2933
  3037     0AF2                     u3790:
  3038     0AF2                     l2915:
  3039                           
  3040                           ;keypad.c: 99:       PORTB = (1<<7)|(1<<6)|(1<<5)|(1<<4)|(0<<3)|(1<<2)|(1<<1)|(1<<0);
  3041     0AF2  30F7               	movlw	247
  3042     0AF3  0086               	movwf	6	;volatile
  3043                           
  3044                           ;keypad.c: 100:       _delay((unsigned long)((100)*(8000000/4000000.0)));
  3045     0AF4  3042               	movlw	66
  3046     0AF5  00F2               	movwf	??_keypad_getkey
  3047     0AF6                     u5327:
  3048     0AF6  0BF2               	decfsz	??_keypad_getkey,f
  3049     0AF7  2AF6               	goto	u5327
  3050     0AF8  0000               	nop
  3051                           
  3052                           ;keypad.c: 101:       while (!(PORTB & (1<<4))){valor=letras[3][0];}
  3053     0AF9  2AFC               	goto	l2919
  3054     0AFA                     l2917:
  3055     0AFA  082C               	movf	keypad_getkey@letras+12,w
  3056     0AFB  00B0               	movwf	keypad_getkey@valor
  3057     0AFC                     l2919:
  3058     0AFC  1283               	bcf	3,5	;RP0=0, select bank0
  3059     0AFD  1303               	bcf	3,6	;RP1=0, select bank0
  3060     0AFE  1E06               	btfss	6,4	;volatile
  3061     0AFF  2B01               	goto	u3801
  3062     0B00  2B02               	goto	u3800
  3063     0B01                     u3801:
  3064     0B01  2AFA               	goto	l2917
  3065     0B02                     u3800:
  3066     0B02  2B05               	goto	l2923
  3067     0B03                     l2921:
  3068     0B03  082D               	movf	keypad_getkey@letras+13,w
  3069     0B04  00B0               	movwf	keypad_getkey@valor
  3070     0B05                     l2923:
  3071     0B05  1E86               	btfss	6,5	;volatile
  3072     0B06  2B08               	goto	u3811
  3073     0B07  2B09               	goto	u3810
  3074     0B08                     u3811:
  3075     0B08  2B03               	goto	l2921
  3076     0B09                     u3810:
  3077     0B09  2B0C               	goto	l2927
  3078     0B0A                     l2925:
  3079     0B0A  082E               	movf	keypad_getkey@letras+14,w
  3080     0B0B  00B0               	movwf	keypad_getkey@valor
  3081     0B0C                     l2927:
  3082     0B0C  1F06               	btfss	6,6	;volatile
  3083     0B0D  2B0F               	goto	u3821
  3084     0B0E  2B10               	goto	u3820
  3085     0B0F                     u3821:
  3086     0B0F  2B0A               	goto	l2925
  3087     0B10                     u3820:
  3088     0B10  2B13               	goto	l2931
  3089     0B11                     l2929:
  3090     0B11  082F               	movf	keypad_getkey@letras+15,w
  3091     0B12  00B0               	movwf	keypad_getkey@valor
  3092     0B13                     l2931:
  3093     0B13  1F86               	btfss	6,7	;volatile
  3094     0B14  2B16               	goto	u3831
  3095     0B15  2B17               	goto	u3830
  3096     0B16                     u3831:
  3097     0B16  2B11               	goto	l2929
  3098     0B17                     u3830:
  3099     0B17                     l2933:
  3100                           
  3101                           ;keypad.c: 106:    }
  3102     0B17  3001               	movlw	1
  3103     0B18  07B1               	addwf	keypad_getkey@i,f
  3104     0B19  1803               	skipnc
  3105     0B1A  0AB2               	incf	keypad_getkey@i+1,f
  3106     0B1B  3000               	movlw	0
  3107     0B1C  07B2               	addwf	keypad_getkey@i+1,f
  3108     0B1D                     l2935:
  3109     0B1D  0832               	movf	keypad_getkey@i+1,w
  3110     0B1E  3A80               	xorlw	128
  3111     0B1F  00FF               	movwf	btemp+1
  3112     0B20  3080               	movlw	128
  3113     0B21  027F               	subwf	btemp+1,w
  3114     0B22  1D03               	skipz
  3115     0B23  2B26               	goto	u3845
  3116     0B24  3004               	movlw	4
  3117     0B25  0231               	subwf	keypad_getkey@i,w
  3118     0B26                     u3845:
  3119     0B26  1C03               	skipc
  3120     0B27  2B29               	goto	u3841
  3121     0B28  2B2A               	goto	u3840
  3122     0B29                     u3841:
  3123     0B29  2A67               	goto	l2853
  3124     0B2A                     u3840:
  3125     0B2A                     l2937:
  3126                           
  3127                           ;keypad.c: 107:    return valor;
  3128     0B2A  1283               	bcf	3,5	;RP0=0, select bank0
  3129     0B2B  1303               	bcf	3,6	;RP1=0, select bank0
  3130     0B2C  0830               	movf	keypad_getkey@valor,w
  3131     0B2D                     l231:
  3132     0B2D  0008               	return
  3133     0B2E                     __end_of_keypad_getkey:
  3134                           
  3135                           	psect	text8
  3136     11E4                     __ptext8:	
  3137 ;; *************** function _LED_COLOR_ON *****************
  3138 ;; Defined at:
  3139 ;;		line 9 in file "LedsSalida.c"
  3140 ;; Parameters:    Size  Location     Type
  3141 ;;  red             1    wreg     unsigned char 
  3142 ;;  green           1    2[COMMON] unsigned char 
  3143 ;;  blue            1    3[COMMON] unsigned char 
  3144 ;; Auto vars:     Size  Location     Type
  3145 ;;  red             1    4[COMMON] unsigned char 
  3146 ;; Return value:  Size  Location     Type
  3147 ;;                  1    wreg      void 
  3148 ;; Registers used:
  3149 ;;		wreg
  3150 ;; Tracked objects:
  3151 ;;		On entry : 0/0
  3152 ;;		On exit  : 0/0
  3153 ;;		Unchanged: 0/0
  3154 ;; Data sizes:     COMMON   BANK0   BANK1   BANK3   BANK2
  3155 ;;      Params:         2       0       0       0       0
  3156 ;;      Locals:         1       0       0       0       0
  3157 ;;      Temps:          0       0       0       0       0
  3158 ;;      Totals:         3       0       0       0       0
  3159 ;;Total ram usage:        3 bytes
  3160 ;; Hardware stack levels used: 1
  3161 ;; Hardware stack levels required when called: 1
  3162 ;; This function calls:
  3163 ;;		Nothing
  3164 ;; This function is called by:
  3165 ;;		_function_clave_Seguridad
  3166 ;;		_function_eBloqueado
  3167 ;;		_function_eAlarma
  3168 ;; This function uses a non-reentrant model
  3169 ;;
  3170                           
  3171     11E4                     _LED_COLOR_ON:	
  3172                           ;psect for function _LED_COLOR_ON
  3173                           
  3174                           
  3175                           ;incstack = 0
  3176                           ; Regs used in _LED_COLOR_ON: [wreg]
  3177                           ;LED_COLOR_ON@red stored from wreg
  3178     11E4  00F4               	movwf	LED_COLOR_ON@red
  3179     11E5                     l3759:
  3180                           
  3181                           ;LedsSalida.c: 10:     RE0 = red;
  3182     11E5  1874               	btfsc	LED_COLOR_ON@red,0
  3183     11E6  29E8               	goto	u4991
  3184     11E7  29EC               	goto	u4990
  3185     11E8                     u4991:
  3186     11E8  1283               	bcf	3,5	;RP0=0, select bank0
  3187     11E9  1303               	bcf	3,6	;RP1=0, select bank0
  3188     11EA  1409               	bsf	9,0	;volatile
  3189     11EB  29EF               	goto	u5004
  3190     11EC                     u4990:
  3191     11EC  1283               	bcf	3,5	;RP0=0, select bank0
  3192     11ED  1303               	bcf	3,6	;RP1=0, select bank0
  3193     11EE  1009               	bcf	9,0	;volatile
  3194     11EF                     u5004:
  3195                           
  3196                           ;LedsSalida.c: 11:     RE1= green;
  3197     11EF  1872               	btfsc	LED_COLOR_ON@green,0
  3198     11F0  29F2               	goto	u5011
  3199     11F1  29F6               	goto	u5010
  3200     11F2                     u5011:
  3201     11F2  1283               	bcf	3,5	;RP0=0, select bank0
  3202     11F3  1303               	bcf	3,6	;RP1=0, select bank0
  3203     11F4  1489               	bsf	9,1	;volatile
  3204     11F5  29F9               	goto	u5024
  3205     11F6                     u5010:
  3206     11F6  1283               	bcf	3,5	;RP0=0, select bank0
  3207     11F7  1303               	bcf	3,6	;RP1=0, select bank0
  3208     11F8  1089               	bcf	9,1	;volatile
  3209     11F9                     u5024:
  3210                           
  3211                           ;LedsSalida.c: 12:     RE2 = blue;
  3212     11F9  1873               	btfsc	LED_COLOR_ON@blue,0
  3213     11FA  29FC               	goto	u5031
  3214     11FB  2A00               	goto	u5030
  3215     11FC                     u5031:
  3216     11FC  1283               	bcf	3,5	;RP0=0, select bank0
  3217     11FD  1303               	bcf	3,6	;RP1=0, select bank0
  3218     11FE  1509               	bsf	9,2	;volatile
  3219     11FF  2A03               	goto	u5044
  3220     1200                     u5030:
  3221     1200  1283               	bcf	3,5	;RP0=0, select bank0
  3222     1201  1303               	bcf	3,6	;RP1=0, select bank0
  3223     1202  1109               	bcf	9,2	;volatile
  3224     1203                     u5044:
  3225     1203                     l247:
  3226     1203  0008               	return
  3227     1204                     __end_of_LED_COLOR_ON:
  3228                           
  3229                           	psect	text9
  3230     0DF1                     __ptext9:	
  3231 ;; *************** function _function_ambiental *****************
  3232 ;; Defined at:
  3233 ;;		line 188 in file "Main_Seguridad.c"
  3234 ;; Parameters:    Size  Location     Type
  3235 ;;		None
  3236 ;; Auto vars:     Size  Location     Type
  3237 ;;  a               4   39[BANK1 ] long 
  3238 ;;  tempC           2   55[BANK1 ] int 
  3239 ;;  n1              2    0        int 
  3240 ;; Return value:  Size  Location     Type
  3241 ;;                  1    wreg      void 
  3242 ;; Registers used:
  3243 ;;		wreg, fsr0l, fsr0h, status,2, status,0, btemp+1, pclath, cstack
  3244 ;; Tracked objects:
  3245 ;;		On entry : 0/0
  3246 ;;		On exit  : 0/0
  3247 ;;		Unchanged: 0/0
  3248 ;; Data sizes:     COMMON   BANK0   BANK1   BANK3   BANK2
  3249 ;;      Params:         0       0       0       0       0
  3250 ;;      Locals:         0       0      18       0       0
  3251 ;;      Temps:          0       0       3       0       0
  3252 ;;      Totals:         0       0      21       0       0
  3253 ;;Total ram usage:       21 bytes
  3254 ;; Hardware stack levels used: 1
  3255 ;; Hardware stack levels required when called: 5
  3256 ;; This function calls:
  3257 ;;		_ConversionADC
  3258 ;;		_LCD_Clear
  3259 ;;		_LCD_String_xy
  3260 ;;		___fladd
  3261 ;;		___fldiv
  3262 ;;		___fltol
  3263 ;;		___xxtofl
  3264 ;;		_log
  3265 ;;		_sprintf
  3266 ;; This function is called by:
  3267 ;;		_main
  3268 ;; This function uses a non-reentrant model
  3269 ;;
  3270                           
  3271     0DF1                     _function_ambiental:	
  3272                           ;psect for function _function_ambiental
  3273                           
  3274     0DF1                     l3909:	
  3275                           ;incstack = 0
  3276                           ; Regs used in _function_ambiental: [wreg-fsr0h+status,2+status,0+btemp+1+pclath+cstack]
  3277                           
  3278                           
  3279                           ;Main_Seguridad.c: 190:     var_sensor_Temp= ConversionADC(0);
  3280     0DF1  3000               	movlw	0
  3281     0DF2  00F2               	movwf	ConversionADC@channel
  3282     0DF3  00F3               	movwf	ConversionADC@channel+1
  3283     0DF4  160A  118A  2204  120A  158A  	fcall	_ConversionADC
  3284     0DF9  0873               	movf	?_ConversionADC+1,w
  3285     0DFA  1683               	bsf	3,5	;RP0=1, select bank1
  3286     0DFB  1303               	bcf	3,6	;RP1=0, select bank1
  3287     0DFC  00E3               	movwf	(_var_sensor_Temp+1)^(0+128)
  3288     0DFD  0872               	movf	?_ConversionADC,w
  3289     0DFE  00E2               	movwf	_var_sensor_Temp^(0+128)
  3290     0DFF                     l3911:
  3291                           
  3292                           ;Main_Seguridad.c: 191:     _delay((unsigned long)((30)*(8000000/4000.0)));
  3293     0DFF  304E               	movlw	78
  3294     0E00  1683               	bsf	3,5	;RP0=1, select bank1
  3295     0E01  1303               	bcf	3,6	;RP1=0, select bank1
  3296     0E02  00C5               	movwf	(??_function_ambiental^(0+128)+1)
  3297     0E03  30EA               	movlw	234
  3298     0E04  00C4               	movwf	??_function_ambiental^(0+128)
  3299     0E05                     u5337:
  3300     0E05  0BC4               	decfsz	??_function_ambiental^(0+128),f
  3301     0E06  2E05               	goto	u5337
  3302     0E07  0BC5               	decfsz	(??_function_ambiental^(0+128)+1),f
  3303     0E08  2E05               	goto	u5337
  3304     0E09  0000               	nop
  3305     0E0A                     l3913:
  3306                           
  3307                           ;Main_Seguridad.c: 192:     long a =1023 - var_sensor_Temp;
  3308     0E0A  30FF               	movlw	255
  3309     0E0B  1683               	bsf	3,5	;RP0=1, select bank1
  3310     0E0C  1303               	bcf	3,6	;RP1=0, select bank1
  3311     0E0D  00C4               	movwf	??_function_ambiental^(0+128)
  3312     0E0E  3003               	movlw	3
  3313     0E0F  00C5               	movwf	(??_function_ambiental^(0+128)+1)
  3314     0E10  0862               	movf	_var_sensor_Temp^(0+128),w
  3315     0E11  0244               	subwf	??_function_ambiental^(0+128),w
  3316     0E12  00C7               	movwf	function_ambiental@a^(0+128)
  3317     0E13  0863               	movf	(_var_sensor_Temp+1)^(0+128),w
  3318     0E14  1C03               	skipc
  3319     0E15  0A63               	incf	(_var_sensor_Temp+1)^(0+128),w
  3320     0E16  0245               	subwf	(??_function_ambiental+1)^(0+128),w
  3321     0E17  00C8               	movwf	(function_ambiental@a+1)^(0+128)
  3322     0E18  01C9               	clrf	(function_ambiental@a^(0+128)+2)
  3323     0E19  1BC8               	btfsc	(function_ambiental@a^(0+128)+1),7
  3324     0E1A  03C9               	decf	(function_ambiental@a+2)^(0+128),f
  3325     0E1B  0849               	movf	(function_ambiental@a^(0+128)+2),w
  3326     0E1C  00CA               	movwf	(function_ambiental@a+3)^(0+128)
  3327     0E1D                     l3915:
  3328                           
  3329                           ;Main_Seguridad.c: 193:         int tempC = (4090 /(log((1025.0 * 10 / a - 10) / 10) + 4
      +                          090 / 298.0) - 273.0);
  3330     0E1D  3046               	movlw	70
  3331     0E1E  1283               	bcf	3,5	;RP0=0, select bank0
  3332     0E1F  1303               	bcf	3,6	;RP1=0, select bank0
  3333     0E20  00CC               	movwf	___fldiv@b+3
  3334     0E21  3020               	movlw	32
  3335     0E22  00CB               	movwf	___fldiv@b+2
  3336     0E23  3028               	movlw	40
  3337     0E24  00CA               	movwf	___fldiv@b+1
  3338     0E25  3000               	movlw	0
  3339     0E26  00C9               	movwf	___fldiv@b
  3340     0E27  1683               	bsf	3,5	;RP0=1, select bank1
  3341     0E28  1303               	bcf	3,6	;RP1=0, select bank1
  3342     0E29  084A               	movf	(function_ambiental@a+3)^(0+128),w
  3343     0E2A  00F5               	movwf	___xxtofl@val+3
  3344     0E2B  0849               	movf	(function_ambiental@a+2)^(0+128),w
  3345     0E2C  00F4               	movwf	___xxtofl@val+2
  3346     0E2D  0848               	movf	(function_ambiental@a+1)^(0+128),w
  3347     0E2E  00F3               	movwf	___xxtofl@val+1
  3348     0E2F  0847               	movf	function_ambiental@a^(0+128),w
  3349     0E30  00F2               	movwf	___xxtofl@val
  3350     0E31  3001               	movlw	1
  3351     0E32  160A  118A  2675  120A  158A  	fcall	___xxtofl
  3352     0E37  0875               	movf	?___xxtofl+3,w
  3353     0E38  1283               	bcf	3,5	;RP0=0, select bank0
  3354     0E39  1303               	bcf	3,6	;RP1=0, select bank0
  3355     0E3A  00C8               	movwf	___fldiv@a+3
  3356     0E3B  0874               	movf	?___xxtofl+2,w
  3357     0E3C  00C7               	movwf	___fldiv@a+2
  3358     0E3D  0873               	movf	?___xxtofl+1,w
  3359     0E3E  00C6               	movwf	___fldiv@a+1
  3360     0E3F  0872               	movf	?___xxtofl,w
  3361     0E40  00C5               	movwf	___fldiv@a
  3362     0E41  120A  158A  2422  120A  158A  	fcall	___fldiv
  3363     0E46  1283               	bcf	3,5	;RP0=0, select bank0
  3364     0E47  1303               	bcf	3,6	;RP1=0, select bank0
  3365     0E48  0848               	movf	?___fldiv+3,w
  3366     0E49  00E6               	movwf	___fladd@a+3
  3367     0E4A  0847               	movf	?___fldiv+2,w
  3368     0E4B  00E5               	movwf	___fladd@a+2
  3369     0E4C  0846               	movf	?___fldiv+1,w
  3370     0E4D  00E4               	movwf	___fladd@a+1
  3371     0E4E  0845               	movf	?___fldiv,w
  3372     0E4F  00E3               	movwf	___fladd@a
  3373     0E50  30C1               	movlw	193
  3374     0E51  00E2               	movwf	___fladd@b+3
  3375     0E52  3020               	movlw	32
  3376     0E53  00E1               	movwf	___fladd@b+2
  3377     0E54  3000               	movlw	0
  3378     0E55  00E0               	movwf	___fladd@b+1
  3379     0E56  3000               	movlw	0
  3380     0E57  00DF               	movwf	___fladd@b
  3381     0E58  120A  118A  237A  120A  158A  	fcall	___fladd
  3382     0E5D  1283               	bcf	3,5	;RP0=0, select bank0
  3383     0E5E  1303               	bcf	3,6	;RP1=0, select bank0
  3384     0E5F  0862               	movf	?___fladd+3,w
  3385     0E60  1683               	bsf	3,5	;RP0=1, select bank1
  3386     0E61  1303               	bcf	3,6	;RP1=0, select bank1
  3387     0E62  00CE               	movwf	(_function_ambiental$1072+3)^(0+128)
  3388     0E63  1283               	bcf	3,5	;RP0=0, select bank0
  3389     0E64  1303               	bcf	3,6	;RP1=0, select bank0
  3390     0E65  0861               	movf	?___fladd+2,w
  3391     0E66  1683               	bsf	3,5	;RP0=1, select bank1
  3392     0E67  1303               	bcf	3,6	;RP1=0, select bank1
  3393     0E68  00CD               	movwf	(_function_ambiental$1072+2)^(0+128)
  3394     0E69  1283               	bcf	3,5	;RP0=0, select bank0
  3395     0E6A  1303               	bcf	3,6	;RP1=0, select bank0
  3396     0E6B  0860               	movf	?___fladd+1,w
  3397     0E6C  1683               	bsf	3,5	;RP0=1, select bank1
  3398     0E6D  1303               	bcf	3,6	;RP1=0, select bank1
  3399     0E6E  00CC               	movwf	(_function_ambiental$1072+1)^(0+128)
  3400     0E6F  1283               	bcf	3,5	;RP0=0, select bank0
  3401     0E70  1303               	bcf	3,6	;RP1=0, select bank0
  3402     0E71  085F               	movf	?___fladd,w
  3403     0E72  1683               	bsf	3,5	;RP0=1, select bank1
  3404     0E73  1303               	bcf	3,6	;RP1=0, select bank1
  3405     0E74  00CB               	movwf	_function_ambiental$1072^(0+128)
  3406     0E75                     l3917:
  3407                           
  3408                           ;Main_Seguridad.c: 193:         int tempC = (4090 /(log((1025.0 * 10 / a - 10) / 10) + 4
      +                          090 / 298.0) - 273.0);
  3409     0E75  084E               	movf	(_function_ambiental$1072+3)^(0+128),w
  3410     0E76  1283               	bcf	3,5	;RP0=0, select bank0
  3411     0E77  1303               	bcf	3,6	;RP1=0, select bank0
  3412     0E78  00CC               	movwf	___fldiv@b+3
  3413     0E79  1683               	bsf	3,5	;RP0=1, select bank1
  3414     0E7A  1303               	bcf	3,6	;RP1=0, select bank1
  3415     0E7B  084D               	movf	(_function_ambiental$1072+2)^(0+128),w
  3416     0E7C  1283               	bcf	3,5	;RP0=0, select bank0
  3417     0E7D  1303               	bcf	3,6	;RP1=0, select bank0
  3418     0E7E  00CB               	movwf	___fldiv@b+2
  3419     0E7F  1683               	bsf	3,5	;RP0=1, select bank1
  3420     0E80  1303               	bcf	3,6	;RP1=0, select bank1
  3421     0E81  084C               	movf	(_function_ambiental$1072+1)^(0+128),w
  3422     0E82  1283               	bcf	3,5	;RP0=0, select bank0
  3423     0E83  1303               	bcf	3,6	;RP1=0, select bank0
  3424     0E84  00CA               	movwf	___fldiv@b+1
  3425     0E85  1683               	bsf	3,5	;RP0=1, select bank1
  3426     0E86  1303               	bcf	3,6	;RP1=0, select bank1
  3427     0E87  084B               	movf	_function_ambiental$1072^(0+128),w
  3428     0E88  1283               	bcf	3,5	;RP0=0, select bank0
  3429     0E89  1303               	bcf	3,6	;RP1=0, select bank0
  3430     0E8A  00C9               	movwf	___fldiv@b
  3431     0E8B  3041               	movlw	65
  3432     0E8C  00C8               	movwf	___fldiv@a+3
  3433     0E8D  3020               	movlw	32
  3434     0E8E  00C7               	movwf	___fldiv@a+2
  3435     0E8F  3000               	movlw	0
  3436     0E90  00C6               	movwf	___fldiv@a+1
  3437     0E91  3000               	movlw	0
  3438     0E92  00C5               	movwf	___fldiv@a
  3439     0E93  120A  158A  2422  120A  158A  	fcall	___fldiv
  3440     0E98  1283               	bcf	3,5	;RP0=0, select bank0
  3441     0E99  1303               	bcf	3,6	;RP1=0, select bank0
  3442     0E9A  0848               	movf	?___fldiv+3,w
  3443     0E9B  1683               	bsf	3,5	;RP0=1, select bank1
  3444     0E9C  1303               	bcf	3,6	;RP1=0, select bank1
  3445     0E9D  00B7               	movwf	(log@x+3)^(0+128)
  3446     0E9E  1283               	bcf	3,5	;RP0=0, select bank0
  3447     0E9F  1303               	bcf	3,6	;RP1=0, select bank0
  3448     0EA0  0847               	movf	?___fldiv+2,w
  3449     0EA1  1683               	bsf	3,5	;RP0=1, select bank1
  3450     0EA2  1303               	bcf	3,6	;RP1=0, select bank1
  3451     0EA3  00B6               	movwf	(log@x+2)^(0+128)
  3452     0EA4  1283               	bcf	3,5	;RP0=0, select bank0
  3453     0EA5  1303               	bcf	3,6	;RP1=0, select bank0
  3454     0EA6  0846               	movf	?___fldiv+1,w
  3455     0EA7  1683               	bsf	3,5	;RP0=1, select bank1
  3456     0EA8  1303               	bcf	3,6	;RP1=0, select bank1
  3457     0EA9  00B5               	movwf	(log@x+1)^(0+128)
  3458     0EAA  1283               	bcf	3,5	;RP0=0, select bank0
  3459     0EAB  1303               	bcf	3,6	;RP1=0, select bank0
  3460     0EAC  0845               	movf	?___fldiv,w
  3461     0EAD  1683               	bsf	3,5	;RP0=1, select bank1
  3462     0EAE  1303               	bcf	3,6	;RP1=0, select bank1
  3463     0EAF  00B4               	movwf	log@x^(0+128)
  3464     0EB0  120A  118A  2672  120A  158A  	fcall	_log
  3465     0EB5  1683               	bsf	3,5	;RP0=1, select bank1
  3466     0EB6  1303               	bcf	3,6	;RP1=0, select bank1
  3467     0EB7  0837               	movf	(?_log+3)^(0+128),w
  3468     0EB8  00D2               	movwf	(_function_ambiental$1073+3)^(0+128)
  3469     0EB9  0836               	movf	(?_log+2)^(0+128),w
  3470     0EBA  00D1               	movwf	(_function_ambiental$1073+2)^(0+128)
  3471     0EBB  0835               	movf	(?_log+1)^(0+128),w
  3472     0EBC  00D0               	movwf	(_function_ambiental$1073+1)^(0+128)
  3473     0EBD  0834               	movf	?_log^(0+128),w
  3474     0EBE  00CF               	movwf	_function_ambiental$1073^(0+128)
  3475     0EBF                     l3919:
  3476                           
  3477                           ;Main_Seguridad.c: 193:         int tempC = (4090 /(log((1025.0 * 10 / a - 10) / 10) + 4
      +                          090 / 298.0) - 273.0);
  3478     0EBF  3045               	movlw	69
  3479     0EC0  1283               	bcf	3,5	;RP0=0, select bank0
  3480     0EC1  1303               	bcf	3,6	;RP1=0, select bank0
  3481     0EC2  00CC               	movwf	___fldiv@b+3
  3482     0EC3  307F               	movlw	127
  3483     0EC4  00CB               	movwf	___fldiv@b+2
  3484     0EC5  30A0               	movlw	160
  3485     0EC6  00CA               	movwf	___fldiv@b+1
  3486     0EC7  3000               	movlw	0
  3487     0EC8  00C9               	movwf	___fldiv@b
  3488     0EC9  1683               	bsf	3,5	;RP0=1, select bank1
  3489     0ECA  1303               	bcf	3,6	;RP1=0, select bank1
  3490     0ECB  0852               	movf	(_function_ambiental$1073+3)^(0+128),w
  3491     0ECC  1283               	bcf	3,5	;RP0=0, select bank0
  3492     0ECD  1303               	bcf	3,6	;RP1=0, select bank0
  3493     0ECE  00E6               	movwf	___fladd@a+3
  3494     0ECF  1683               	bsf	3,5	;RP0=1, select bank1
  3495     0ED0  1303               	bcf	3,6	;RP1=0, select bank1
  3496     0ED1  0851               	movf	(_function_ambiental$1073+2)^(0+128),w
  3497     0ED2  1283               	bcf	3,5	;RP0=0, select bank0
  3498     0ED3  1303               	bcf	3,6	;RP1=0, select bank0
  3499     0ED4  00E5               	movwf	___fladd@a+2
  3500     0ED5  1683               	bsf	3,5	;RP0=1, select bank1
  3501     0ED6  1303               	bcf	3,6	;RP1=0, select bank1
  3502     0ED7  0850               	movf	(_function_ambiental$1073+1)^(0+128),w
  3503     0ED8  1283               	bcf	3,5	;RP0=0, select bank0
  3504     0ED9  1303               	bcf	3,6	;RP1=0, select bank0
  3505     0EDA  00E4               	movwf	___fladd@a+1
  3506     0EDB  1683               	bsf	3,5	;RP0=1, select bank1
  3507     0EDC  1303               	bcf	3,6	;RP1=0, select bank1
  3508     0EDD  084F               	movf	_function_ambiental$1073^(0+128),w
  3509     0EDE  1283               	bcf	3,5	;RP0=0, select bank0
  3510     0EDF  1303               	bcf	3,6	;RP1=0, select bank0
  3511     0EE0  00E3               	movwf	___fladd@a
  3512     0EE1  3041               	movlw	65
  3513     0EE2  00E2               	movwf	___fladd@b+3
  3514     0EE3  305B               	movlw	91
  3515     0EE4  00E1               	movwf	___fladd@b+2
  3516     0EE5  3098               	movlw	152
  3517     0EE6  00E0               	movwf	___fladd@b+1
  3518     0EE7  30EA               	movlw	234
  3519     0EE8  00DF               	movwf	___fladd@b
  3520     0EE9  120A  118A  237A  120A  158A  	fcall	___fladd
  3521     0EEE  1283               	bcf	3,5	;RP0=0, select bank0
  3522     0EEF  1303               	bcf	3,6	;RP1=0, select bank0
  3523     0EF0  0862               	movf	?___fladd+3,w
  3524     0EF1  00C8               	movwf	___fldiv@a+3
  3525     0EF2  0861               	movf	?___fladd+2,w
  3526     0EF3  00C7               	movwf	___fldiv@a+2
  3527     0EF4  0860               	movf	?___fladd+1,w
  3528     0EF5  00C6               	movwf	___fldiv@a+1
  3529     0EF6  085F               	movf	?___fladd,w
  3530     0EF7  00C5               	movwf	___fldiv@a
  3531     0EF8  120A  158A  2422  120A  158A  	fcall	___fldiv
  3532     0EFD  1283               	bcf	3,5	;RP0=0, select bank0
  3533     0EFE  1303               	bcf	3,6	;RP1=0, select bank0
  3534     0EFF  0848               	movf	?___fldiv+3,w
  3535     0F00  1683               	bsf	3,5	;RP0=1, select bank1
  3536     0F01  1303               	bcf	3,6	;RP1=0, select bank1
  3537     0F02  00D6               	movwf	(_function_ambiental$1074+3)^(0+128)
  3538     0F03  1283               	bcf	3,5	;RP0=0, select bank0
  3539     0F04  1303               	bcf	3,6	;RP1=0, select bank0
  3540     0F05  0847               	movf	?___fldiv+2,w
  3541     0F06  1683               	bsf	3,5	;RP0=1, select bank1
  3542     0F07  1303               	bcf	3,6	;RP1=0, select bank1
  3543     0F08  00D5               	movwf	(_function_ambiental$1074+2)^(0+128)
  3544     0F09  1283               	bcf	3,5	;RP0=0, select bank0
  3545     0F0A  1303               	bcf	3,6	;RP1=0, select bank0
  3546     0F0B  0846               	movf	?___fldiv+1,w
  3547     0F0C  1683               	bsf	3,5	;RP0=1, select bank1
  3548     0F0D  1303               	bcf	3,6	;RP1=0, select bank1
  3549     0F0E  00D4               	movwf	(_function_ambiental$1074+1)^(0+128)
  3550     0F0F  1283               	bcf	3,5	;RP0=0, select bank0
  3551     0F10  1303               	bcf	3,6	;RP1=0, select bank0
  3552     0F11  0845               	movf	?___fldiv,w
  3553     0F12  1683               	bsf	3,5	;RP0=1, select bank1
  3554     0F13  1303               	bcf	3,6	;RP1=0, select bank1
  3555     0F14  00D3               	movwf	_function_ambiental$1074^(0+128)
  3556     0F15                     l3921:
  3557                           
  3558                           ;Main_Seguridad.c: 193:         int tempC = (4090 /(log((1025.0 * 10 / a - 10) / 10) + 4
      +                          090 / 298.0) - 273.0);
  3559     0F15  0856               	movf	(_function_ambiental$1074+3)^(0+128),w
  3560     0F16  1283               	bcf	3,5	;RP0=0, select bank0
  3561     0F17  1303               	bcf	3,6	;RP1=0, select bank0
  3562     0F18  00E6               	movwf	___fladd@a+3
  3563     0F19  1683               	bsf	3,5	;RP0=1, select bank1
  3564     0F1A  1303               	bcf	3,6	;RP1=0, select bank1
  3565     0F1B  0855               	movf	(_function_ambiental$1074+2)^(0+128),w
  3566     0F1C  1283               	bcf	3,5	;RP0=0, select bank0
  3567     0F1D  1303               	bcf	3,6	;RP1=0, select bank0
  3568     0F1E  00E5               	movwf	___fladd@a+2
  3569     0F1F  1683               	bsf	3,5	;RP0=1, select bank1
  3570     0F20  1303               	bcf	3,6	;RP1=0, select bank1
  3571     0F21  0854               	movf	(_function_ambiental$1074+1)^(0+128),w
  3572     0F22  1283               	bcf	3,5	;RP0=0, select bank0
  3573     0F23  1303               	bcf	3,6	;RP1=0, select bank0
  3574     0F24  00E4               	movwf	___fladd@a+1
  3575     0F25  1683               	bsf	3,5	;RP0=1, select bank1
  3576     0F26  1303               	bcf	3,6	;RP1=0, select bank1
  3577     0F27  0853               	movf	_function_ambiental$1074^(0+128),w
  3578     0F28  1283               	bcf	3,5	;RP0=0, select bank0
  3579     0F29  1303               	bcf	3,6	;RP1=0, select bank0
  3580     0F2A  00E3               	movwf	___fladd@a
  3581     0F2B  30C3               	movlw	195
  3582     0F2C  00E2               	movwf	___fladd@b+3
  3583     0F2D  3088               	movlw	136
  3584     0F2E  00E1               	movwf	___fladd@b+2
  3585     0F2F  3080               	movlw	128
  3586     0F30  00E0               	movwf	___fladd@b+1
  3587     0F31  3000               	movlw	0
  3588     0F32  00DF               	movwf	___fladd@b
  3589     0F33  120A  118A  237A  120A  158A  	fcall	___fladd
  3590     0F38  1283               	bcf	3,5	;RP0=0, select bank0
  3591     0F39  1303               	bcf	3,6	;RP1=0, select bank0
  3592     0F3A  0862               	movf	?___fladd+3,w
  3593     0F3B  1683               	bsf	3,5	;RP0=1, select bank1
  3594     0F3C  1303               	bcf	3,6	;RP1=0, select bank1
  3595     0F3D  00BD               	movwf	(___fltol@f1+3)^(0+128)
  3596     0F3E  1283               	bcf	3,5	;RP0=0, select bank0
  3597     0F3F  1303               	bcf	3,6	;RP1=0, select bank0
  3598     0F40  0861               	movf	?___fladd+2,w
  3599     0F41  1683               	bsf	3,5	;RP0=1, select bank1
  3600     0F42  1303               	bcf	3,6	;RP1=0, select bank1
  3601     0F43  00BC               	movwf	(___fltol@f1+2)^(0+128)
  3602     0F44  1283               	bcf	3,5	;RP0=0, select bank0
  3603     0F45  1303               	bcf	3,6	;RP1=0, select bank0
  3604     0F46  0860               	movf	?___fladd+1,w
  3605     0F47  1683               	bsf	3,5	;RP0=1, select bank1
  3606     0F48  1303               	bcf	3,6	;RP1=0, select bank1
  3607     0F49  00BB               	movwf	(___fltol@f1+1)^(0+128)
  3608     0F4A  1283               	bcf	3,5	;RP0=0, select bank0
  3609     0F4B  1303               	bcf	3,6	;RP1=0, select bank0
  3610     0F4C  085F               	movf	?___fladd,w
  3611     0F4D  1683               	bsf	3,5	;RP0=1, select bank1
  3612     0F4E  1303               	bcf	3,6	;RP1=0, select bank1
  3613     0F4F  00BA               	movwf	___fltol@f1^(0+128)
  3614     0F50  160A  118A  24D9  120A  158A  	fcall	___fltol
  3615     0F55  1683               	bsf	3,5	;RP0=1, select bank1
  3616     0F56  1303               	bcf	3,6	;RP1=0, select bank1
  3617     0F57  083B               	movf	(?___fltol+1)^(0+128),w
  3618     0F58  00D8               	movwf	(function_ambiental@tempC+1)^(0+128)
  3619     0F59  083A               	movf	?___fltol^(0+128),w
  3620     0F5A  00D7               	movwf	function_ambiental@tempC^(0+128)
  3621     0F5B                     l3923:
  3622                           
  3623                           ;Main_Seguridad.c: 195:         var_sensor_Photo = ConversionADC(1);
  3624     0F5B  3001               	movlw	1
  3625     0F5C  00F2               	movwf	ConversionADC@channel
  3626     0F5D  3000               	movlw	0
  3627     0F5E  00F3               	movwf	ConversionADC@channel+1
  3628     0F5F  160A  118A  2204  120A  158A  	fcall	_ConversionADC
  3629     0F64  0873               	movf	?_ConversionADC+1,w
  3630     0F65  1683               	bsf	3,5	;RP0=1, select bank1
  3631     0F66  1303               	bcf	3,6	;RP1=0, select bank1
  3632     0F67  00E1               	movwf	(_var_sensor_Photo+1)^(0+128)
  3633     0F68  0872               	movf	?_ConversionADC,w
  3634     0F69  00E0               	movwf	_var_sensor_Photo^(0+128)
  3635     0F6A                     l3925:
  3636                           
  3637                           ;Main_Seguridad.c: 196:          _delay((unsigned long)((30)*(8000000/4000.0)));
  3638     0F6A  304E               	movlw	78
  3639     0F6B  1683               	bsf	3,5	;RP0=1, select bank1
  3640     0F6C  1303               	bcf	3,6	;RP1=0, select bank1
  3641     0F6D  00C5               	movwf	(??_function_ambiental^(0+128)+1)
  3642     0F6E  30EA               	movlw	234
  3643     0F6F  00C4               	movwf	??_function_ambiental^(0+128)
  3644     0F70                     u5347:
  3645     0F70  0BC4               	decfsz	??_function_ambiental^(0+128),f
  3646     0F71  2F70               	goto	u5347
  3647     0F72  0BC5               	decfsz	(??_function_ambiental^(0+128)+1),f
  3648     0F73  2F70               	goto	u5347
  3649     0F74  0000               	nop
  3650     0F75                     l3927:
  3651                           
  3652                           ;Main_Seguridad.c: 199:         var_sensor_flame = ConversionADC(4);
  3653     0F75  3004               	movlw	4
  3654     0F76  00F2               	movwf	ConversionADC@channel
  3655     0F77  3000               	movlw	0
  3656     0F78  00F3               	movwf	ConversionADC@channel+1
  3657     0F79  160A  118A  2204  120A  158A  	fcall	_ConversionADC
  3658     0F7E  0873               	movf	?_ConversionADC+1,w
  3659     0F7F  1683               	bsf	3,5	;RP0=1, select bank1
  3660     0F80  1303               	bcf	3,6	;RP1=0, select bank1
  3661     0F81  00DF               	movwf	(_var_sensor_flame+1)^(0+128)
  3662     0F82  0872               	movf	?_ConversionADC,w
  3663     0F83  00DE               	movwf	_var_sensor_flame^(0+128)
  3664     0F84                     l3929:
  3665                           
  3666                           ;Main_Seguridad.c: 200:          _delay((unsigned long)((30)*(8000000/4000.0)));
  3667     0F84  304E               	movlw	78
  3668     0F85  1683               	bsf	3,5	;RP0=1, select bank1
  3669     0F86  1303               	bcf	3,6	;RP1=0, select bank1
  3670     0F87  00C5               	movwf	(??_function_ambiental^(0+128)+1)
  3671     0F88  30EA               	movlw	234
  3672     0F89  00C4               	movwf	??_function_ambiental^(0+128)
  3673     0F8A                     u5357:
  3674     0F8A  0BC4               	decfsz	??_function_ambiental^(0+128),f
  3675     0F8B  2F8A               	goto	u5357
  3676     0F8C  0BC5               	decfsz	(??_function_ambiental^(0+128)+1),f
  3677     0F8D  2F8A               	goto	u5357
  3678     0F8E  0000               	nop
  3679     0F8F                     l3931:
  3680                           
  3681                           ;Main_Seguridad.c: 202:         LCD_Clear();
  3682     0F8F  160A  118A  219D  120A  158A  	fcall	_LCD_Clear
  3683     0F94                     l3933:
  3684     0F94  3085               	movlw	(low ((STR_8-__stringbase)| (0+32768)))& (0+255)
  3685     0F95  1283               	bcf	3,5	;RP0=0, select bank0
  3686     0F96  1303               	bcf	3,6	;RP1=0, select bank0
  3687     0F97  00A4               	movwf	sprintf@f
  3688     0F98  1683               	bsf	3,5	;RP0=1, select bank1
  3689     0F99  1303               	bcf	3,6	;RP1=0, select bank1
  3690     0F9A  0858               	movf	(function_ambiental@tempC+1)^(0+128),w
  3691     0F9B  1283               	bcf	3,5	;RP0=0, select bank0
  3692     0F9C  1303               	bcf	3,6	;RP1=0, select bank0
  3693     0F9D  00A6               	movwf	?_sprintf+2
  3694     0F9E  1683               	bsf	3,5	;RP0=1, select bank1
  3695     0F9F  1303               	bcf	3,6	;RP1=0, select bank1
  3696     0FA0  0857               	movf	function_ambiental@tempC^(0+128),w
  3697     0FA1  1283               	bcf	3,5	;RP0=0, select bank0
  3698     0FA2  1303               	bcf	3,6	;RP1=0, select bank0
  3699     0FA3  00A5               	movwf	?_sprintf+1
  3700     0FA4  1683               	bsf	3,5	;RP0=1, select bank1
  3701     0FA5  1303               	bcf	3,6	;RP1=0, select bank1
  3702     0FA6  0861               	movf	(_var_sensor_Photo+1)^(0+128),w
  3703     0FA7  1283               	bcf	3,5	;RP0=0, select bank0
  3704     0FA8  1303               	bcf	3,6	;RP1=0, select bank0
  3705     0FA9  00A8               	movwf	?_sprintf+4
  3706     0FAA  1683               	bsf	3,5	;RP0=1, select bank1
  3707     0FAB  1303               	bcf	3,6	;RP1=0, select bank1
  3708     0FAC  0860               	movf	_var_sensor_Photo^(0+128),w
  3709     0FAD  1283               	bcf	3,5	;RP0=0, select bank0
  3710     0FAE  1303               	bcf	3,6	;RP1=0, select bank0
  3711     0FAF  00A7               	movwf	?_sprintf+3
  3712     0FB0  1683               	bsf	3,5	;RP0=1, select bank1
  3713     0FB1  1303               	bcf	3,6	;RP1=0, select bank1
  3714     0FB2  085F               	movf	(_var_sensor_flame+1)^(0+128),w
  3715     0FB3  1283               	bcf	3,5	;RP0=0, select bank0
  3716     0FB4  1303               	bcf	3,6	;RP1=0, select bank0
  3717     0FB5  00AA               	movwf	?_sprintf+6
  3718     0FB6  1683               	bsf	3,5	;RP0=1, select bank1
  3719     0FB7  1303               	bcf	3,6	;RP1=0, select bank1
  3720     0FB8  085E               	movf	_var_sensor_flame^(0+128),w
  3721     0FB9  1283               	bcf	3,5	;RP0=0, select bank0
  3722     0FBA  1303               	bcf	3,6	;RP1=0, select bank0
  3723     0FBB  00A9               	movwf	?_sprintf+5
  3724     0FBC  3090               	movlw	(low (_buffer| (0+256)))& (0+255)
  3725     0FBD  120A  158A  232E  120A  158A  	fcall	_sprintf
  3726     0FC2                     l3935:
  3727                           
  3728                           ;Main_Seguridad.c: 206:         LCD_String_xy(0,0,buffer);
  3729     0FC2  01F7               	clrf	LCD_String_xy@pos
  3730     0FC3  3090               	movlw	(low (_buffer| (0+256)))& (0+255)
  3731     0FC4  00F8               	movwf	LCD_String_xy@msg
  3732     0FC5  3001               	movlw	1
  3733     0FC6  00F9               	movwf	LCD_String_xy@msg+1
  3734     0FC7  3000               	movlw	0
  3735     0FC8  160A  118A  224B  120A  158A  	fcall	_LCD_String_xy
  3736     0FCD                     l3937:
  3737                           
  3738                           ;Main_Seguridad.c: 208:         if(tempC > 30 ){
  3739     0FCD  1683               	bsf	3,5	;RP0=1, select bank1
  3740     0FCE  1303               	bcf	3,6	;RP1=0, select bank1
  3741     0FCF  0858               	movf	(function_ambiental@tempC+1)^(0+128),w
  3742     0FD0  3A80               	xorlw	128
  3743     0FD1  00FF               	movwf	btemp+1
  3744     0FD2  3080               	movlw	128
  3745     0FD3  027F               	subwf	btemp+1,w
  3746     0FD4  1D03               	skipz
  3747     0FD5  2FD8               	goto	u5155
  3748     0FD6  301F               	movlw	31
  3749     0FD7  0257               	subwf	function_ambiental@tempC^(0+128),w
  3750     0FD8                     u5155:
  3751     0FD8  1C03               	skipc
  3752     0FD9  2FDB               	goto	u5151
  3753     0FDA  2FDC               	goto	u5150
  3754     0FDB                     u5151:
  3755     0FDB  2FEE               	goto	l3945
  3756     0FDC                     u5150:
  3757     0FDC                     l3939:
  3758                           
  3759                           ;Main_Seguridad.c: 209:             LCD_Clear();
  3760     0FDC  160A  118A  219D  120A  158A  	fcall	_LCD_Clear
  3761     0FE1                     l3941:
  3762                           
  3763                           ;Main_Seguridad.c: 210:             LCD_String_xy(0,0,"Temperatura muy alta");
  3764     0FE1  01F7               	clrf	LCD_String_xy@pos
  3765     0FE2  304D               	movlw	(low ((STR_9-__stringbase)| (0+32768)))& (0+255)
  3766     0FE3  00F8               	movwf	LCD_String_xy@msg
  3767     0FE4  3080               	movlw	128
  3768     0FE5  00F9               	movwf	LCD_String_xy@msg+1
  3769     0FE6  3000               	movlw	0
  3770     0FE7  160A  118A  224B  120A  158A  	fcall	_LCD_String_xy
  3771     0FEC                     l3943:
  3772                           
  3773                           ;Main_Seguridad.c: 211:             Estado=alarma;
  3774     0FEC  3003               	movlw	3
  3775     0FED  00FB               	movwf	_Estado
  3776     0FEE                     l3945:
  3777                           
  3778                           ;Main_Seguridad.c: 213:         _delay((unsigned long)((3000)*(8000000/4000.0)));
  3779     0FEE  301F               	movlw	31
  3780     0FEF  1683               	bsf	3,5	;RP0=1, select bank1
  3781     0FF0  1303               	bcf	3,6	;RP1=0, select bank1
  3782     0FF1  00C6               	movwf	(??_function_ambiental^(0+128)+2)
  3783     0FF2  3071               	movlw	113
  3784     0FF3  00C5               	movwf	(??_function_ambiental^(0+128)+1)
  3785     0FF4  301D               	movlw	29
  3786     0FF5  00C4               	movwf	??_function_ambiental^(0+128)
  3787     0FF6                     u5367:
  3788     0FF6  0BC4               	decfsz	??_function_ambiental^(0+128),f
  3789     0FF7  2FF6               	goto	u5367
  3790     0FF8  0BC5               	decfsz	(??_function_ambiental^(0+128)+1),f
  3791     0FF9  2FF6               	goto	u5367
  3792     0FFA  0BC6               	decfsz	(??_function_ambiental^(0+128)+2),f
  3793     0FFB  2FF6               	goto	u5367
  3794     0FFC  2FFD               	nop2
  3795     0FFD                     l3947:
  3796                           
  3797                           ;Main_Seguridad.c: 214:         Estado = monitoreo;
  3798     0FFD  01FB               	clrf	_Estado
  3799     0FFE  0AFB               	incf	_Estado,f
  3800     0FFF                     l122:
  3801     0FFF  0008               	return
  3802     1000                     __end_of_function_ambiental:
  3803                           
  3804                           	psect	text10
  3805     0B2E                     __ptext10:	
  3806 ;; *************** function _sprintf *****************
  3807 ;; Defined at:
  3808 ;;		line 505 in file "C:\Program Files\Microchip\xc8\v2.41\pic\sources\c90\common\doprnt.c"
  3809 ;; Parameters:    Size  Location     Type
  3810 ;;  sp              1    wreg     PTR unsigned char 
  3811 ;;		 -> buffer(17), 
  3812 ;;  f               1    4[BANK0 ] PTR const unsigned char 
  3813 ;;		 -> STR_8(17), STR_6(18), 
  3814 ;; Auto vars:     Size  Location     Type
  3815 ;;  sp              1   21[BANK0 ] PTR unsigned char 
  3816 ;;		 -> buffer(17), 
  3817 ;;  tmpval          4    0        struct .
  3818 ;;  val             2   19[BANK0 ] unsigned int 
  3819 ;;  ccnt            2   16[BANK0 ] int 
  3820 ;;  cp              2    0        PTR const unsigned char 
  3821 ;;  len             2    0        unsigned int 
  3822 ;;  c               1   22[BANK0 ] unsigned char 
  3823 ;;  prec            1   18[BANK0 ] char 
  3824 ;;  flag            1   15[BANK0 ] unsigned char 
  3825 ;;  ap              1   14[BANK0 ] PTR void [1]
  3826 ;;		 -> ?_sprintf(2), 
  3827 ;; Return value:  Size  Location     Type
  3828 ;;                  2    4[BANK0 ] int 
  3829 ;; Registers used:
  3830 ;;		wreg, fsr0l, fsr0h, status,2, status,0, btemp+1, pclath, cstack
  3831 ;; Tracked objects:
  3832 ;;		On entry : 0/0
  3833 ;;		On exit  : 0/0
  3834 ;;		Unchanged: 0/0
  3835 ;; Data sizes:     COMMON   BANK0   BANK1   BANK3   BANK2
  3836 ;;      Params:         0       7       0       0       0
  3837 ;;      Locals:         0       9       0       0       0
  3838 ;;      Temps:          0       3       0       0       0
  3839 ;;      Totals:         0      19       0       0       0
  3840 ;;Total ram usage:       19 bytes
  3841 ;; Hardware stack levels used: 1
  3842 ;; Hardware stack levels required when called: 2
  3843 ;; This function calls:
  3844 ;;		___lwdiv
  3845 ;;		___lwmod
  3846 ;; This function is called by:
  3847 ;;		_function_eMonitoreo
  3848 ;;		_function_ambiental
  3849 ;; This function uses a non-reentrant model
  3850 ;;
  3851                           
  3852     0B2E                     _sprintf:	
  3853                           ;psect for function _sprintf
  3854                           
  3855                           
  3856                           ;incstack = 0
  3857                           ; Regs used in _sprintf: [wreg-fsr0h+status,2+status,0+btemp+1+pclath+cstack]
  3858                           ;sprintf@sp stored from wreg
  3859     0B2E  1283               	bcf	3,5	;RP0=0, select bank0
  3860     0B2F  1303               	bcf	3,6	;RP1=0, select bank0
  3861     0B30  00B5               	movwf	sprintf@sp
  3862     0B31                     l2959:
  3863                           
  3864                           ;C:\Program Files\Microchip\xc8\v2.41\pic\sources\c90\common\doprnt.c: 505: sprintf(char
      +                           * sp, const char * f, ...);C:\Program Files\Microchip\xc8\v2.41\pic\sources\c90\common\
      +                          doprnt.c: 506: {;C:\Program Files\Microchip\xc8\v2.41\pic\sources\c90\common\doprnt.c: 5
      +                          07:  va_list ap;;C:\Program Files\Microchip\xc8\v2.41\pic\sources\c90\common\doprnt.c: 5
      +                          12:  char c;;C:\Program Files\Microchip\xc8\v2.41\pic\sources\c90\common\doprnt.c: 521: 
      +                           signed char prec;;C:\Program Files\Microchip\xc8\v2.41\pic\sources\c90\common\doprnt.c:
      +                           525:  unsigned char flag;
  3865     0B31  01B0               	clrf	sprintf@ccnt
  3866     0B32  01B1               	clrf	sprintf@ccnt+1
  3867     0B33                     l2961:
  3868                           
  3869                           ;C:\Program Files\Microchip\xc8\v2.41\pic\sources\c90\common\doprnt.c: 543:  } tmpval;;C
      +                          :\Program Files\Microchip\xc8\v2.41\pic\sources\c90\common\doprnt.c: 545:  unsigned int 
      +                          val;;C:\Program Files\Microchip\xc8\v2.41\pic\sources\c90\common\doprnt.c: 546:  unsigne
      +                          d len;;C:\Program Files\Microchip\xc8\v2.41\pic\sources\c90\common\doprnt.c: 547:  const
      +                           char * cp;;C:\Program Files\Microchip\xc8\v2.41\pic\sources\c90\common\doprnt.c: 550:  
      +                          *ap = __va_start();
  3870     0B33  3025               	movlw	(low ((?_sprintf| 0+1)))& (0+255)
  3871     0B34  00AE               	movwf	sprintf@ap
  3872                           
  3873                           ;C:\Program Files\Microchip\xc8\v2.41\pic\sources\c90\common\doprnt.c: 553:  while((c = 
      +                          *f++)) {
  3874     0B35  2C09               	goto	l3021
  3875     0B36                     l2963:
  3876                           
  3877                           ;C:\Program Files\Microchip\xc8\v2.41\pic\sources\c90\common\doprnt.c: 555:   if(c != '%
      +                          ')
  3878     0B36  3025               	movlw	37
  3879     0B37  0636               	xorwf	sprintf@c,w
  3880     0B38  1903               	btfsc	3,2
  3881     0B39  2B3B               	goto	u3881
  3882     0B3A  2B3C               	goto	u3880
  3883     0B3B                     u3881:
  3884     0B3B  2B4C               	goto	l2971
  3885     0B3C                     u3880:
  3886     0B3C                     l2965:
  3887                           
  3888                           ;C:\Program Files\Microchip\xc8\v2.41\pic\sources\c90\common\doprnt.c: 557:   {;C:\Progr
      +                          am Files\Microchip\xc8\v2.41\pic\sources\c90\common\doprnt.c: 558:    ((*sp++ = (c)),(++
      +                          ccnt));
  3889     0B3C  0835               	movf	sprintf@sp,w
  3890     0B3D  0084               	movwf	4
  3891     0B3E  0836               	movf	sprintf@c,w
  3892     0B3F  1783               	bsf	3,7	;select IRP bank2
  3893     0B40  0080               	movwf	0
  3894     0B41                     l2967:
  3895     0B41  3001               	movlw	1
  3896     0B42  00FF               	movwf	btemp+1
  3897     0B43  087F               	movf	btemp+1,w
  3898     0B44  07B5               	addwf	sprintf@sp,f
  3899     0B45                     l2969:
  3900     0B45  3001               	movlw	1
  3901     0B46  07B0               	addwf	sprintf@ccnt,f
  3902     0B47  1803               	skipnc
  3903     0B48  0AB1               	incf	sprintf@ccnt+1,f
  3904     0B49  3000               	movlw	0
  3905     0B4A  07B1               	addwf	sprintf@ccnt+1,f
  3906                           
  3907                           ;C:\Program Files\Microchip\xc8\v2.41\pic\sources\c90\common\doprnt.c: 559:    continue;
  3908     0B4B  2C09               	goto	l3021
  3909     0B4C                     l2971:
  3910                           
  3911                           ;C:\Program Files\Microchip\xc8\v2.41\pic\sources\c90\common\doprnt.c: 565:   flag = 0;
  3912     0B4C  01AF               	clrf	sprintf@flag
  3913     0B4D                     l2975:	
  3914                           ;C:\Program Files\Microchip\xc8\v2.41\pic\sources\c90\common\doprnt.c: 661:   switch(c =
      +                           *f++) {
  3915                           
  3916     0B4D  3001               	movlw	1
  3917     0B4E  07A4               	addwf	sprintf@f,f
  3918     0B4F  30FF               	movlw	-1
  3919     0B50  0724               	addwf	sprintf@f,w
  3920     0B51  0084               	movwf	4
  3921     0B52  120A  158A  200A  120A  158A  	fcall	stringdir
  3922     0B57  00B6               	movwf	sprintf@c
  3923     0B58  00AB               	movwf	??_sprintf
  3924     0B59  01AC               	clrf	??_sprintf+1
  3925                           
  3926                           ; Switch on 2 bytes has been partitioned into a top level switch of size 1, and 1 sub-sw
      +                          itches
  3927                           ; Switch size 1, requested type "simple"
  3928                           ; Number of cases is 1, Range of values is 0 to 0
  3929                           ; switch strategies available:
  3930                           ; Name         Instructions Cycles
  3931                           ; simple_byte            4     3 (average)
  3932                           ; direct_byte           11     8 (fixed)
  3933                           ; jumptable            260     6 (fixed)
  3934                           ;	Chosen strategy is simple_byte
  3935     0B5A  082C               	movf	??_sprintf+1,w
  3936     0B5B  3A00               	xorlw	0	; case 0
  3937     0B5C  1903               	skipnz
  3938     0B5D  2B5F               	goto	l4017
  3939     0B5E  2C09               	goto	l3021
  3940     0B5F                     l4017:
  3941                           
  3942                           ; Switch size 1, requested type "simple"
  3943                           ; Number of cases is 3, Range of values is 0 to 105
  3944                           ; switch strategies available:
  3945                           ; Name         Instructions Cycles
  3946                           ; simple_byte           10     6 (average)
  3947                           ; jumptable            260     6 (fixed)
  3948                           ;	Chosen strategy is simple_byte
  3949     0B5F  082B               	movf	??_sprintf,w
  3950     0B60  3A00               	xorlw	0	; case 0
  3951     0B61  1903               	skipnz
  3952     0B62  2C19               	goto	l3023
  3953     0B63  3A64               	xorlw	100	; case 100
  3954     0B64  1903               	skipnz
  3955     0B65  2B6A               	goto	l2977
  3956     0B66  3A0D               	xorlw	13	; case 105
  3957     0B67  1903               	skipnz
  3958     0B68  2B6A               	goto	l2977
  3959     0B69  2C09               	goto	l3021
  3960     0B6A                     l2977:
  3961                           
  3962                           ;C:\Program Files\Microchip\xc8\v2.41\pic\sources\c90\common\doprnt.c: 1279:   {;C:\Prog
      +                          ram Files\Microchip\xc8\v2.41\pic\sources\c90\common\doprnt.c: 1285:     val = (unsigned
      +                           int)(*(int *)__va_arg((*(int **)ap), (int)0));
  3963     0B6A  082E               	movf	sprintf@ap,w
  3964     0B6B  0084               	movwf	4
  3965     0B6C  1383               	bcf	3,7	;select IRP bank0
  3966     0B6D  0800               	movf	0,w
  3967     0B6E  00B3               	movwf	sprintf@val
  3968     0B6F  0A84               	incf	4,f
  3969     0B70  0800               	movf	0,w
  3970     0B71  00B4               	movwf	sprintf@val+1
  3971     0B72                     l2979:
  3972     0B72  3002               	movlw	2
  3973     0B73  00FF               	movwf	btemp+1
  3974     0B74  087F               	movf	btemp+1,w
  3975     0B75  07AE               	addwf	sprintf@ap,f
  3976     0B76                     l2981:
  3977                           
  3978                           ;C:\Program Files\Microchip\xc8\v2.41\pic\sources\c90\common\doprnt.c: 1287:    if((int)
      +                          val < 0) {
  3979     0B76  1FB4               	btfss	sprintf@val+1,7
  3980     0B77  2B79               	goto	u3891
  3981     0B78  2B7A               	goto	u3890
  3982     0B79                     u3891:
  3983     0B79  2B83               	goto	l2987
  3984     0B7A                     u3890:
  3985     0B7A                     l2983:
  3986                           
  3987                           ;C:\Program Files\Microchip\xc8\v2.41\pic\sources\c90\common\doprnt.c: 1288:     flag |=
      +                           0x03;
  3988     0B7A  3003               	movlw	3
  3989     0B7B  00FF               	movwf	btemp+1
  3990     0B7C  087F               	movf	btemp+1,w
  3991     0B7D  04AF               	iorwf	sprintf@flag,f
  3992     0B7E                     l2985:
  3993                           
  3994                           ;C:\Program Files\Microchip\xc8\v2.41\pic\sources\c90\common\doprnt.c: 1289:     val = -
      +                          val;
  3995     0B7E  09B3               	comf	sprintf@val,f
  3996     0B7F  09B4               	comf	sprintf@val+1,f
  3997     0B80  0AB3               	incf	sprintf@val,f
  3998     0B81  1903               	skipnz
  3999     0B82  0AB4               	incf	sprintf@val+1,f
  4000     0B83                     l2987:
  4001                           
  4002                           ;C:\Program Files\Microchip\xc8\v2.41\pic\sources\c90\common\doprnt.c: 1292:   };C:\Prog
      +                          ram Files\Microchip\xc8\v2.41\pic\sources\c90\common\doprnt.c: 1331:    for(c = 1 ; c !=
      +                           sizeof dpowers/sizeof dpowers[0] ; c++)
  4003     0B83  01B6               	clrf	sprintf@c
  4004     0B84  0AB6               	incf	sprintf@c,f
  4005     0B85                     l2993:
  4006                           
  4007                           ;C:\Program Files\Microchip\xc8\v2.41\pic\sources\c90\common\doprnt.c: 1332:     if(val 
      +                          < dpowers[c])
  4008     0B85  0836               	movf	sprintf@c,w
  4009     0B86  00AB               	movwf	??_sprintf
  4010     0B87  072B               	addwf	??_sprintf,w
  4011     0B88  3E01               	addlw	low ((_dpowers-__stringbase)| (0+32768))
  4012     0B89  0084               	movwf	4
  4013     0B8A  120A  158A  200A  120A  158A  	fcall	stringdir
  4014     0B8F  00AC               	movwf	??_sprintf+1
  4015     0B90  120A  158A  200A  120A  158A  	fcall	stringdir
  4016     0B95  00AD               	movwf	??_sprintf+2
  4017     0B96  082D               	movf	??_sprintf+2,w
  4018     0B97  0234               	subwf	sprintf@val+1,w
  4019     0B98  1D03               	skipz
  4020     0B99  2B9C               	goto	u3905
  4021     0B9A  082C               	movf	??_sprintf+1,w
  4022     0B9B  0233               	subwf	sprintf@val,w
  4023     0B9C                     u3905:
  4024     0B9C  1803               	skipnc
  4025     0B9D  2B9F               	goto	u3901
  4026     0B9E  2BA0               	goto	u3900
  4027     0B9F                     u3901:
  4028     0B9F  2BA1               	goto	l2997
  4029     0BA0                     u3900:
  4030     0BA0  2BAB               	goto	l3001
  4031     0BA1                     l2997:
  4032     0BA1  3001               	movlw	1
  4033     0BA2  00FF               	movwf	btemp+1
  4034     0BA3  087F               	movf	btemp+1,w
  4035     0BA4  07B6               	addwf	sprintf@c,f
  4036     0BA5                     l2999:
  4037     0BA5  3005               	movlw	5
  4038     0BA6  0636               	xorwf	sprintf@c,w
  4039     0BA7  1D03               	btfss	3,2
  4040     0BA8  2BAA               	goto	u3911
  4041     0BA9  2BAB               	goto	u3910
  4042     0BAA                     u3911:
  4043     0BAA  2B85               	goto	l2993
  4044     0BAB                     u3910:
  4045     0BAB                     l3001:
  4046                           
  4047                           ;C:\Program Files\Microchip\xc8\v2.41\pic\sources\c90\common\doprnt.c: 1448:   {;C:\Prog
      +                          ram Files\Microchip\xc8\v2.41\pic\sources\c90\common\doprnt.c: 1464:    if(flag & 0x03)
  4048     0BAB  082F               	movf	sprintf@flag,w
  4049     0BAC  3903               	andlw	3
  4050     0BAD  1903               	btfsc	3,2
  4051     0BAE  2BB0               	goto	u3921
  4052     0BAF  2BB1               	goto	u3920
  4053     0BB0                     u3921:
  4054     0BB0  2BC0               	goto	l3009
  4055     0BB1                     u3920:
  4056     0BB1                     l3003:
  4057                           
  4058                           ;C:\Program Files\Microchip\xc8\v2.41\pic\sources\c90\common\doprnt.c: 1465:     ((*sp++
      +                           = ('-')),(++ccnt));
  4059     0BB1  0835               	movf	sprintf@sp,w
  4060     0BB2  0084               	movwf	4
  4061     0BB3  302D               	movlw	45
  4062     0BB4  1783               	bsf	3,7	;select IRP bank2
  4063     0BB5  0080               	movwf	0
  4064     0BB6                     l3005:
  4065     0BB6  3001               	movlw	1
  4066     0BB7  00FF               	movwf	btemp+1
  4067     0BB8  087F               	movf	btemp+1,w
  4068     0BB9  07B5               	addwf	sprintf@sp,f
  4069     0BBA                     l3007:
  4070     0BBA  3001               	movlw	1
  4071     0BBB  07B0               	addwf	sprintf@ccnt,f
  4072     0BBC  1803               	skipnc
  4073     0BBD  0AB1               	incf	sprintf@ccnt+1,f
  4074     0BBE  3000               	movlw	0
  4075     0BBF  07B1               	addwf	sprintf@ccnt+1,f
  4076     0BC0                     l3009:
  4077                           
  4078                           ;C:\Program Files\Microchip\xc8\v2.41\pic\sources\c90\common\doprnt.c: 1495:   };C:\Prog
      +                          ram Files\Microchip\xc8\v2.41\pic\sources\c90\common\doprnt.c: 1498:   prec = c;
  4079     0BC0  0836               	movf	sprintf@c,w
  4080     0BC1  00B2               	movwf	sprintf@prec
  4081                           
  4082                           ;C:\Program Files\Microchip\xc8\v2.41\pic\sources\c90\common\doprnt.c: 1500:   while(pre
      +                          c--) {
  4083     0BC2  2C00               	goto	l3019
  4084     0BC3                     l3011:
  4085                           
  4086                           ;C:\Program Files\Microchip\xc8\v2.41\pic\sources\c90\common\doprnt.c: 1504:    {;C:\Pro
      +                          gram Files\Microchip\xc8\v2.41\pic\sources\c90\common\doprnt.c: 1515:     c = (val / dpo
      +                          wers[(unsigned char)prec]) % 10 + '0';
  4087     0BC3  300A               	movlw	10
  4088     0BC4  00A0               	movwf	___lwmod@divisor
  4089     0BC5  3000               	movlw	0
  4090     0BC6  00A1               	movwf	___lwmod@divisor+1
  4091     0BC7  0832               	movf	sprintf@prec,w
  4092     0BC8  00AB               	movwf	??_sprintf
  4093     0BC9  072B               	addwf	??_sprintf,w
  4094     0BCA  3E01               	addlw	low ((_dpowers-__stringbase)| (0+32768))
  4095     0BCB  0084               	movwf	4
  4096     0BCC  120A  158A  200A  120A  158A  	fcall	stringdir
  4097     0BD1  00F2               	movwf	___lwdiv@divisor
  4098     0BD2  120A  158A  200A  120A  158A  	fcall	stringdir
  4099     0BD7  00F3               	movwf	___lwdiv@divisor+1
  4100     0BD8  0834               	movf	sprintf@val+1,w
  4101     0BD9  00F5               	movwf	___lwdiv@dividend+1
  4102     0BDA  0833               	movf	sprintf@val,w
  4103     0BDB  00F4               	movwf	___lwdiv@dividend
  4104     0BDC  160A  118A  239E  120A  158A  	fcall	___lwdiv
  4105     0BE1  0873               	movf	?___lwdiv+1,w
  4106     0BE2  1283               	bcf	3,5	;RP0=0, select bank0
  4107     0BE3  1303               	bcf	3,6	;RP1=0, select bank0
  4108     0BE4  00A3               	movwf	___lwmod@dividend+1
  4109     0BE5  0872               	movf	?___lwdiv,w
  4110     0BE6  00A2               	movwf	___lwmod@dividend
  4111     0BE7  160A  118A  2362  120A  158A  	fcall	___lwmod
  4112     0BEC  1283               	bcf	3,5	;RP0=0, select bank0
  4113     0BED  1303               	bcf	3,6	;RP1=0, select bank0
  4114     0BEE  0820               	movf	?___lwmod,w
  4115     0BEF  3E30               	addlw	48
  4116     0BF0  00B6               	movwf	sprintf@c
  4117     0BF1                     l3013:
  4118                           
  4119                           ;C:\Program Files\Microchip\xc8\v2.41\pic\sources\c90\common\doprnt.c: 1549:    };C:\Pro
      +                          gram Files\Microchip\xc8\v2.41\pic\sources\c90\common\doprnt.c: 1550:    ((*sp++ = (c)),
      +                          (++ccnt));
  4120     0BF1  0835               	movf	sprintf@sp,w
  4121     0BF2  0084               	movwf	4
  4122     0BF3  0836               	movf	sprintf@c,w
  4123     0BF4  1783               	bsf	3,7	;select IRP bank2
  4124     0BF5  0080               	movwf	0
  4125     0BF6                     l3015:
  4126     0BF6  3001               	movlw	1
  4127     0BF7  00FF               	movwf	btemp+1
  4128     0BF8  087F               	movf	btemp+1,w
  4129     0BF9  07B5               	addwf	sprintf@sp,f
  4130     0BFA                     l3017:
  4131     0BFA  3001               	movlw	1
  4132     0BFB  07B0               	addwf	sprintf@ccnt,f
  4133     0BFC  1803               	skipnc
  4134     0BFD  0AB1               	incf	sprintf@ccnt+1,f
  4135     0BFE  3000               	movlw	0
  4136     0BFF  07B1               	addwf	sprintf@ccnt+1,f
  4137     0C00                     l3019:
  4138                           
  4139                           ;C:\Program Files\Microchip\xc8\v2.41\pic\sources\c90\common\doprnt.c: 1500:   while(pre
      +                          c--) {
  4140     0C00  30FF               	movlw	255
  4141     0C01  00FF               	movwf	btemp+1
  4142     0C02  087F               	movf	btemp+1,w
  4143     0C03  07B2               	addwf	sprintf@prec,f
  4144     0C04  0A32               	incf	sprintf@prec,w
  4145     0C05  1D03               	btfss	3,2
  4146     0C06  2C08               	goto	u3931
  4147     0C07  2C09               	goto	u3930
  4148     0C08                     u3931:
  4149     0C08  2BC3               	goto	l3011
  4150     0C09                     u3930:
  4151     0C09                     l3021:
  4152                           
  4153                           ;C:\Program Files\Microchip\xc8\v2.41\pic\sources\c90\common\doprnt.c: 553:  while((c = 
      +                          *f++)) {
  4154     0C09  3001               	movlw	1
  4155     0C0A  07A4               	addwf	sprintf@f,f
  4156     0C0B  30FF               	movlw	-1
  4157     0C0C  0724               	addwf	sprintf@f,w
  4158     0C0D  0084               	movwf	4
  4159     0C0E  120A  158A  200A  120A  158A  	fcall	stringdir
  4160     0C13  00B6               	movwf	sprintf@c
  4161     0C14  0836               	movf	sprintf@c,w
  4162     0C15  1D03               	btfss	3,2
  4163     0C16  2C18               	goto	u3941
  4164     0C17  2C19               	goto	u3940
  4165     0C18                     u3941:
  4166     0C18  2B36               	goto	l2963
  4167     0C19                     u3940:
  4168     0C19                     l3023:
  4169                           
  4170                           ;C:\Program Files\Microchip\xc8\v2.41\pic\sources\c90\common\doprnt.c: 1564:  *sp = 0;
  4171     0C19  0835               	movf	sprintf@sp,w
  4172     0C1A  0084               	movwf	4
  4173     0C1B  1783               	bsf	3,7	;select IRP bank2
  4174     0C1C  0180               	clrf	0
  4175     0C1D                     l3025:
  4176                           
  4177                           ;C:\Program Files\Microchip\xc8\v2.41\pic\sources\c90\common\doprnt.c: 1566:  return ccn
      +                          t;
  4178     0C1D  0831               	movf	sprintf@ccnt+1,w
  4179     0C1E  00A5               	movwf	?_sprintf+1
  4180     0C1F  0830               	movf	sprintf@ccnt,w
  4181     0C20  00A4               	movwf	?_sprintf
  4182     0C21                     l406:
  4183     0C21  0008               	return
  4184     0C22                     __end_of_sprintf:
  4185                           
  4186                           	psect	text11
  4187     1362                     __ptext11:	
  4188 ;; *************** function ___lwmod *****************
  4189 ;; Defined at:
  4190 ;;		line 5 in file "C:\Program Files\Microchip\xc8\v2.41\pic\sources\c90\common\lwmod.c"
  4191 ;; Parameters:    Size  Location     Type
  4192 ;;  divisor         2    0[BANK0 ] unsigned int 
  4193 ;;  dividend        2    2[BANK0 ] unsigned int 
  4194 ;; Auto vars:     Size  Location     Type
  4195 ;;  counter         1    9[COMMON] unsigned char 
  4196 ;; Return value:  Size  Location     Type
  4197 ;;                  2    0[BANK0 ] unsigned int 
  4198 ;; Registers used:
  4199 ;;		wreg, status,2, status,0, btemp+1
  4200 ;; Tracked objects:
  4201 ;;		On entry : 0/0
  4202 ;;		On exit  : 0/0
  4203 ;;		Unchanged: 0/0
  4204 ;; Data sizes:     COMMON   BANK0   BANK1   BANK3   BANK2
  4205 ;;      Params:         0       4       0       0       0
  4206 ;;      Locals:         1       0       0       0       0
  4207 ;;      Temps:          0       0       0       0       0
  4208 ;;      Totals:         1       4       0       0       0
  4209 ;;Total ram usage:        5 bytes
  4210 ;; Hardware stack levels used: 1
  4211 ;; Hardware stack levels required when called: 1
  4212 ;; This function calls:
  4213 ;;		Nothing
  4214 ;; This function is called by:
  4215 ;;		_sprintf
  4216 ;; This function uses a non-reentrant model
  4217 ;;
  4218                           
  4219     1362                     ___lwmod:	
  4220                           ;psect for function ___lwmod
  4221                           
  4222     1362                     l2721:	
  4223                           ;incstack = 0
  4224                           ; Regs used in ___lwmod: [wreg+status,2+status,0+btemp+1]
  4225                           
  4226     1362  1283               	bcf	3,5	;RP0=0, select bank0
  4227     1363  1303               	bcf	3,6	;RP1=0, select bank0
  4228     1364  0820               	movf	___lwmod@divisor,w
  4229     1365  0421               	iorwf	___lwmod@divisor+1,w
  4230     1366  1903               	btfsc	3,2
  4231     1367  2B69               	goto	u3321
  4232     1368  2B6A               	goto	u3320
  4233     1369                     u3321:
  4234     1369  2B99               	goto	l2739
  4235     136A                     u3320:
  4236     136A                     l2723:
  4237     136A  01F9               	clrf	___lwmod@counter
  4238     136B  0AF9               	incf	___lwmod@counter,f
  4239     136C  2B78               	goto	l2729
  4240     136D                     l2725:
  4241     136D  3001               	movlw	1
  4242     136E                     u3335:
  4243     136E  1003               	clrc
  4244     136F  0DA0               	rlf	___lwmod@divisor,f
  4245     1370  0DA1               	rlf	___lwmod@divisor+1,f
  4246     1371  3EFF               	addlw	-1
  4247     1372  1D03               	skipz
  4248     1373  2B6E               	goto	u3335
  4249     1374                     l2727:
  4250     1374  3001               	movlw	1
  4251     1375  00FF               	movwf	btemp+1
  4252     1376  087F               	movf	btemp+1,w
  4253     1377  07F9               	addwf	___lwmod@counter,f
  4254     1378                     l2729:
  4255     1378  1FA1               	btfss	___lwmod@divisor+1,7
  4256     1379  2B7B               	goto	u3341
  4257     137A  2B7C               	goto	u3340
  4258     137B                     u3341:
  4259     137B  2B6D               	goto	l2725
  4260     137C                     u3340:
  4261     137C                     l2731:
  4262     137C  0821               	movf	___lwmod@divisor+1,w
  4263     137D  0223               	subwf	___lwmod@dividend+1,w
  4264     137E  1D03               	skipz
  4265     137F  2B82               	goto	u3355
  4266     1380  0820               	movf	___lwmod@divisor,w
  4267     1381  0222               	subwf	___lwmod@dividend,w
  4268     1382                     u3355:
  4269     1382  1C03               	skipc
  4270     1383  2B85               	goto	u3351
  4271     1384  2B86               	goto	u3350
  4272     1385                     u3351:
  4273     1385  2B8C               	goto	l2735
  4274     1386                     u3350:
  4275     1386                     l2733:
  4276     1386  0820               	movf	___lwmod@divisor,w
  4277     1387  02A2               	subwf	___lwmod@dividend,f
  4278     1388  0821               	movf	___lwmod@divisor+1,w
  4279     1389  1C03               	skipc
  4280     138A  03A3               	decf	___lwmod@dividend+1,f
  4281     138B  02A3               	subwf	___lwmod@dividend+1,f
  4282     138C                     l2735:
  4283     138C  3001               	movlw	1
  4284     138D                     u3365:
  4285     138D  1003               	clrc
  4286     138E  0CA1               	rrf	___lwmod@divisor+1,f
  4287     138F  0CA0               	rrf	___lwmod@divisor,f
  4288     1390  3EFF               	addlw	-1
  4289     1391  1D03               	skipz
  4290     1392  2B8D               	goto	u3365
  4291     1393                     l2737:
  4292     1393  3001               	movlw	1
  4293     1394  02F9               	subwf	___lwmod@counter,f
  4294     1395  1D03               	btfss	3,2
  4295     1396  2B98               	goto	u3371
  4296     1397  2B99               	goto	u3370
  4297     1398                     u3371:
  4298     1398  2B7C               	goto	l2731
  4299     1399                     u3370:
  4300     1399                     l2739:
  4301     1399  0823               	movf	___lwmod@dividend+1,w
  4302     139A  00A1               	movwf	?___lwmod+1
  4303     139B  0822               	movf	___lwmod@dividend,w
  4304     139C  00A0               	movwf	?___lwmod
  4305     139D                     l692:
  4306     139D  0008               	return
  4307     139E                     __end_of___lwmod:
  4308                           
  4309                           	psect	text12
  4310     139E                     __ptext12:	
  4311 ;; *************** function ___lwdiv *****************
  4312 ;; Defined at:
  4313 ;;		line 5 in file "C:\Program Files\Microchip\xc8\v2.41\pic\sources\c90\common\lwdiv.c"
  4314 ;; Parameters:    Size  Location     Type
  4315 ;;  divisor         2    2[COMMON] unsigned int 
  4316 ;;  dividend        2    4[COMMON] unsigned int 
  4317 ;; Auto vars:     Size  Location     Type
  4318 ;;  quotient        2    6[COMMON] unsigned int 
  4319 ;;  counter         1    8[COMMON] unsigned char 
  4320 ;; Return value:  Size  Location     Type
  4321 ;;                  2    2[COMMON] unsigned int 
  4322 ;; Registers used:
  4323 ;;		wreg, status,2, status,0, btemp+1
  4324 ;; Tracked objects:
  4325 ;;		On entry : 0/0
  4326 ;;		On exit  : 0/0
  4327 ;;		Unchanged: 0/0
  4328 ;; Data sizes:     COMMON   BANK0   BANK1   BANK3   BANK2
  4329 ;;      Params:         4       0       0       0       0
  4330 ;;      Locals:         3       0       0       0       0
  4331 ;;      Temps:          0       0       0       0       0
  4332 ;;      Totals:         7       0       0       0       0
  4333 ;;Total ram usage:        7 bytes
  4334 ;; Hardware stack levels used: 1
  4335 ;; Hardware stack levels required when called: 1
  4336 ;; This function calls:
  4337 ;;		Nothing
  4338 ;; This function is called by:
  4339 ;;		_sprintf
  4340 ;; This function uses a non-reentrant model
  4341 ;;
  4342                           
  4343     139E                     ___lwdiv:	
  4344                           ;psect for function ___lwdiv
  4345                           
  4346     139E                     l2695:	
  4347                           ;incstack = 0
  4348                           ; Regs used in ___lwdiv: [wreg+status,2+status,0+btemp+1]
  4349                           
  4350     139E  01F6               	clrf	___lwdiv@quotient
  4351     139F  01F7               	clrf	___lwdiv@quotient+1
  4352     13A0                     l2697:
  4353     13A0  0872               	movf	___lwdiv@divisor,w
  4354     13A1  0473               	iorwf	___lwdiv@divisor+1,w
  4355     13A2  1903               	btfsc	3,2
  4356     13A3  2BA5               	goto	u3251
  4357     13A4  2BA6               	goto	u3250
  4358     13A5                     u3251:
  4359     13A5  2BDD               	goto	l2717
  4360     13A6                     u3250:
  4361     13A6                     l2699:
  4362     13A6  01F8               	clrf	___lwdiv@counter
  4363     13A7  0AF8               	incf	___lwdiv@counter,f
  4364     13A8  2BB4               	goto	l2705
  4365     13A9                     l2701:
  4366     13A9  3001               	movlw	1
  4367     13AA                     u3265:
  4368     13AA  1003               	clrc
  4369     13AB  0DF2               	rlf	___lwdiv@divisor,f
  4370     13AC  0DF3               	rlf	___lwdiv@divisor+1,f
  4371     13AD  3EFF               	addlw	-1
  4372     13AE  1D03               	skipz
  4373     13AF  2BAA               	goto	u3265
  4374     13B0                     l2703:
  4375     13B0  3001               	movlw	1
  4376     13B1  00FF               	movwf	btemp+1
  4377     13B2  087F               	movf	btemp+1,w
  4378     13B3  07F8               	addwf	___lwdiv@counter,f
  4379     13B4                     l2705:
  4380     13B4  1FF3               	btfss	___lwdiv@divisor+1,7
  4381     13B5  2BB7               	goto	u3271
  4382     13B6  2BB8               	goto	u3270
  4383     13B7                     u3271:
  4384     13B7  2BA9               	goto	l2701
  4385     13B8                     u3270:
  4386     13B8                     l2707:
  4387     13B8  3001               	movlw	1
  4388     13B9                     u3285:
  4389     13B9  1003               	clrc
  4390     13BA  0DF6               	rlf	___lwdiv@quotient,f
  4391     13BB  0DF7               	rlf	___lwdiv@quotient+1,f
  4392     13BC  3EFF               	addlw	-1
  4393     13BD  1D03               	skipz
  4394     13BE  2BB9               	goto	u3285
  4395     13BF  0873               	movf	___lwdiv@divisor+1,w
  4396     13C0  0275               	subwf	___lwdiv@dividend+1,w
  4397     13C1  1D03               	skipz
  4398     13C2  2BC5               	goto	u3295
  4399     13C3  0872               	movf	___lwdiv@divisor,w
  4400     13C4  0274               	subwf	___lwdiv@dividend,w
  4401     13C5                     u3295:
  4402     13C5  1C03               	skipc
  4403     13C6  2BC8               	goto	u3291
  4404     13C7  2BC9               	goto	u3290
  4405     13C8                     u3291:
  4406     13C8  2BD0               	goto	l2713
  4407     13C9                     u3290:
  4408     13C9                     l2709:
  4409     13C9  0872               	movf	___lwdiv@divisor,w
  4410     13CA  02F4               	subwf	___lwdiv@dividend,f
  4411     13CB  0873               	movf	___lwdiv@divisor+1,w
  4412     13CC  1C03               	skipc
  4413     13CD  03F5               	decf	___lwdiv@dividend+1,f
  4414     13CE  02F5               	subwf	___lwdiv@dividend+1,f
  4415     13CF                     l2711:
  4416     13CF  1476               	bsf	___lwdiv@quotient,0
  4417     13D0                     l2713:
  4418     13D0  3001               	movlw	1
  4419     13D1                     u3305:
  4420     13D1  1003               	clrc
  4421     13D2  0CF3               	rrf	___lwdiv@divisor+1,f
  4422     13D3  0CF2               	rrf	___lwdiv@divisor,f
  4423     13D4  3EFF               	addlw	-1
  4424     13D5  1D03               	skipz
  4425     13D6  2BD1               	goto	u3305
  4426     13D7                     l2715:
  4427     13D7  3001               	movlw	1
  4428     13D8  02F8               	subwf	___lwdiv@counter,f
  4429     13D9  1D03               	btfss	3,2
  4430     13DA  2BDC               	goto	u3311
  4431     13DB  2BDD               	goto	u3310
  4432     13DC                     u3311:
  4433     13DC  2BB8               	goto	l2707
  4434     13DD                     u3310:
  4435     13DD                     l2717:
  4436     13DD  0877               	movf	___lwdiv@quotient+1,w
  4437     13DE  00F3               	movwf	?___lwdiv+1
  4438     13DF  0876               	movf	___lwdiv@quotient,w
  4439     13E0  00F2               	movwf	?___lwdiv
  4440     13E1                     l682:
  4441     13E1  0008               	return
  4442     13E2                     __end_of___lwdiv:
  4443                           
  4444                           	psect	text13
  4445     0672                     __ptext13:	
  4446 ;; *************** function _log *****************
  4447 ;; Defined at:
  4448 ;;		line 5 in file "C:\Program Files\Microchip\xc8\v2.41\pic\sources\c90\common\log.c"
  4449 ;; Parameters:    Size  Location     Type
  4450 ;;  x               4   20[BANK1 ] unsigned int 
  4451 ;; Auto vars:     Size  Location     Type
  4452 ;;  exponent        2   24[BANK1 ] int 
  4453 ;; Return value:  Size  Location     Type
  4454 ;;                  4   20[BANK1 ] int 
  4455 ;; Registers used:
  4456 ;;		wreg, fsr0l, fsr0h, status,2, status,0, btemp+1, pclath, cstack
  4457 ;; Tracked objects:
  4458 ;;		On entry : 0/0
  4459 ;;		On exit  : 0/0
  4460 ;;		Unchanged: 0/0
  4461 ;; Data sizes:     COMMON   BANK0   BANK1   BANK3   BANK2
  4462 ;;      Params:         0       0       4       0       0
  4463 ;;      Locals:         0       0       2       0       0
  4464 ;;      Temps:          0       0       0       0       0
  4465 ;;      Totals:         0       0       6       0       0
  4466 ;;Total ram usage:        6 bytes
  4467 ;; Hardware stack levels used: 1
  4468 ;; Hardware stack levels required when called: 4
  4469 ;; This function calls:
  4470 ;;		___fladd
  4471 ;;		___fleq
  4472 ;;		___flge
  4473 ;;		___flmul
  4474 ;;		___xxtofl
  4475 ;;		_eval_poly
  4476 ;;		_frexp
  4477 ;; This function is called by:
  4478 ;;		_function_ambiental
  4479 ;; This function uses a non-reentrant model
  4480 ;;
  4481                           
  4482     0672                     _log:	
  4483                           ;psect for function _log
  4484                           
  4485     0672                     l3761:	
  4486                           ;incstack = 0
  4487                           ; Regs used in _log: [wreg-fsr0h+status,2+status,0+btemp+1+pclath+cstack]
  4488                           
  4489     0672  1683               	bsf	3,5	;RP0=1, select bank1
  4490     0673  1303               	bcf	3,6	;RP1=0, select bank1
  4491     0674  0837               	movf	(log@x+3)^(0+128),w
  4492     0675  00F5               	movwf	___flge@ff1+3
  4493     0676  0836               	movf	(log@x+2)^(0+128),w
  4494     0677  00F4               	movwf	___flge@ff1+2
  4495     0678  0835               	movf	(log@x+1)^(0+128),w
  4496     0679  00F3               	movwf	___flge@ff1+1
  4497     067A  0834               	movf	log@x^(0+128),w
  4498     067B  00F2               	movwf	___flge@ff1
  4499     067C  3000               	movlw	0
  4500     067D  00F9               	movwf	___flge@ff2+3
  4501     067E  3000               	movlw	0
  4502     067F  00F8               	movwf	___flge@ff2+2
  4503     0680  3000               	movlw	0
  4504     0681  00F7               	movwf	___flge@ff2+1
  4505     0682  3000               	movlw	0
  4506     0683  00F6               	movwf	___flge@ff2
  4507     0684  160A  118A  25D1  120A  118A  	fcall	___flge
  4508     0689  1803               	btfsc	3,0
  4509     068A  2E8C               	goto	u5051
  4510     068B  2E8D               	goto	u5050
  4511     068C                     u5051:
  4512     068C  2E9C               	goto	l3767
  4513     068D                     u5050:
  4514     068D                     l3763:
  4515     068D  3021               	movlw	33
  4516     068E  1683               	bsf	3,5	;RP0=1, select bank1
  4517     068F  1303               	bcf	3,6	;RP1=0, select bank1
  4518     0690  00DC               	movwf	_errno^(0+128)
  4519     0691  3000               	movlw	0
  4520     0692  00DD               	movwf	(_errno^(0+128)+1)
  4521     0693  3000               	movlw	0
  4522     0694  00B7               	movwf	(?_log+3)^(0+128)
  4523     0695  3000               	movlw	0
  4524     0696  00B6               	movwf	(?_log+2)^(0+128)
  4525     0697  3000               	movlw	0
  4526     0698  00B5               	movwf	(?_log+1)^(0+128)
  4527     0699  3000               	movlw	0
  4528     069A  00B4               	movwf	?_log^(0+128)
  4529     069B  2FB5               	goto	l870
  4530     069C                     l3767:
  4531     069C  1683               	bsf	3,5	;RP0=1, select bank1
  4532     069D  1303               	bcf	3,6	;RP1=0, select bank1
  4533     069E  0837               	movf	(log@x+3)^(0+128),w
  4534     069F  00F5               	movwf	___fleq@ff1+3
  4535     06A0  0836               	movf	(log@x+2)^(0+128),w
  4536     06A1  00F4               	movwf	___fleq@ff1+2
  4537     06A2  0835               	movf	(log@x+1)^(0+128),w
  4538     06A3  00F3               	movwf	___fleq@ff1+1
  4539     06A4  0834               	movf	log@x^(0+128),w
  4540     06A5  00F2               	movwf	___fleq@ff1
  4541     06A6  3000               	movlw	0
  4542     06A7  00F9               	movwf	___fleq@ff2+3
  4543     06A8  3000               	movlw	0
  4544     06A9  00F8               	movwf	___fleq@ff2+2
  4545     06AA  3000               	movlw	0
  4546     06AB  00F7               	movwf	___fleq@ff2+1
  4547     06AC  3000               	movlw	0
  4548     06AD  00F6               	movwf	___fleq@ff2
  4549     06AE  160A  118A  242D  120A  118A  	fcall	___fleq
  4550     06B3  1C03               	btfss	3,0
  4551     06B4  2EB6               	goto	u5061
  4552     06B5  2EB7               	goto	u5060
  4553     06B6                     u5061:
  4554     06B6  2EC6               	goto	l3773
  4555     06B7                     u5060:
  4556     06B7                     l3769:
  4557     06B7  3022               	movlw	34
  4558     06B8  1683               	bsf	3,5	;RP0=1, select bank1
  4559     06B9  1303               	bcf	3,6	;RP1=0, select bank1
  4560     06BA  00DC               	movwf	_errno^(0+128)
  4561     06BB  3000               	movlw	0
  4562     06BC  00DD               	movwf	(_errno^(0+128)+1)
  4563     06BD  3000               	movlw	0
  4564     06BE  00B7               	movwf	(?_log+3)^(0+128)
  4565     06BF  3000               	movlw	0
  4566     06C0  00B6               	movwf	(?_log+2)^(0+128)
  4567     06C1  3000               	movlw	0
  4568     06C2  00B5               	movwf	(?_log+1)^(0+128)
  4569     06C3  3000               	movlw	0
  4570     06C4  00B4               	movwf	?_log^(0+128)
  4571     06C5  2FB5               	goto	l870
  4572     06C6                     l3773:
  4573     06C6  30BF               	movlw	191
  4574     06C7  1283               	bcf	3,5	;RP0=0, select bank0
  4575     06C8  1303               	bcf	3,6	;RP1=0, select bank0
  4576     06C9  00E2               	movwf	___fladd@b+3
  4577     06CA  3080               	movlw	128
  4578     06CB  00E1               	movwf	___fladd@b+2
  4579     06CC  3000               	movlw	0
  4580     06CD  00E0               	movwf	___fladd@b+1
  4581     06CE  3000               	movlw	0
  4582     06CF  00DF               	movwf	___fladd@b
  4583     06D0  3040               	movlw	64
  4584     06D1  00AE               	movwf	___flmul@b+3
  4585     06D2  3000               	movlw	0
  4586     06D3  00AD               	movwf	___flmul@b+2
  4587     06D4  3000               	movlw	0
  4588     06D5  00AC               	movwf	___flmul@b+1
  4589     06D6  3000               	movlw	0
  4590     06D7  00AB               	movwf	___flmul@b
  4591     06D8  30B8               	movlw	(low (log@exponent| 0))& (0+255)
  4592     06D9  00A8               	movwf	frexp@eptr
  4593     06DA  1683               	bsf	3,5	;RP0=1, select bank1
  4594     06DB  1303               	bcf	3,6	;RP1=0, select bank1
  4595     06DC  0837               	movf	(log@x+3)^(0+128),w
  4596     06DD  1283               	bcf	3,5	;RP0=0, select bank0
  4597     06DE  1303               	bcf	3,6	;RP1=0, select bank0
  4598     06DF  00A7               	movwf	frexp@value+3
  4599     06E0  1683               	bsf	3,5	;RP0=1, select bank1
  4600     06E1  1303               	bcf	3,6	;RP1=0, select bank1
  4601     06E2  0836               	movf	(log@x+2)^(0+128),w
  4602     06E3  1283               	bcf	3,5	;RP0=0, select bank0
  4603     06E4  1303               	bcf	3,6	;RP1=0, select bank0
  4604     06E5  00A6               	movwf	frexp@value+2
  4605     06E6  1683               	bsf	3,5	;RP0=1, select bank1
  4606     06E7  1303               	bcf	3,6	;RP1=0, select bank1
  4607     06E8  0835               	movf	(log@x+1)^(0+128),w
  4608     06E9  1283               	bcf	3,5	;RP0=0, select bank0
  4609     06EA  1303               	bcf	3,6	;RP1=0, select bank0
  4610     06EB  00A5               	movwf	frexp@value+1
  4611     06EC  1683               	bsf	3,5	;RP0=1, select bank1
  4612     06ED  1303               	bcf	3,6	;RP1=0, select bank1
  4613     06EE  0834               	movf	log@x^(0+128),w
  4614     06EF  1283               	bcf	3,5	;RP0=0, select bank0
  4615     06F0  1303               	bcf	3,6	;RP1=0, select bank0
  4616     06F1  00A4               	movwf	frexp@value
  4617     06F2  160A  118A  247D  120A  118A  	fcall	_frexp
  4618     06F7  1283               	bcf	3,5	;RP0=0, select bank0
  4619     06F8  1303               	bcf	3,6	;RP1=0, select bank0
  4620     06F9  0827               	movf	?_frexp+3,w
  4621     06FA  00B2               	movwf	___flmul@a+3
  4622     06FB  0826               	movf	?_frexp+2,w
  4623     06FC  00B1               	movwf	___flmul@a+2
  4624     06FD  0825               	movf	?_frexp+1,w
  4625     06FE  00B0               	movwf	___flmul@a+1
  4626     06FF  0824               	movf	?_frexp,w
  4627     0700  00AF               	movwf	___flmul@a
  4628     0701  120A  118A  2035  120A  118A  	fcall	___flmul
  4629     0706  1283               	bcf	3,5	;RP0=0, select bank0
  4630     0707  1303               	bcf	3,6	;RP1=0, select bank0
  4631     0708  082E               	movf	?___flmul+3,w
  4632     0709  00E6               	movwf	___fladd@a+3
  4633     070A  082D               	movf	?___flmul+2,w
  4634     070B  00E5               	movwf	___fladd@a+2
  4635     070C  082C               	movf	?___flmul+1,w
  4636     070D  00E4               	movwf	___fladd@a+1
  4637     070E  082B               	movf	?___flmul,w
  4638     070F  00E3               	movwf	___fladd@a
  4639     0710  120A  118A  237A  120A  118A  	fcall	___fladd
  4640     0715  1283               	bcf	3,5	;RP0=0, select bank0
  4641     0716  1303               	bcf	3,6	;RP1=0, select bank0
  4642     0717  0862               	movf	?___fladd+3,w
  4643     0718  1683               	bsf	3,5	;RP0=1, select bank1
  4644     0719  1303               	bcf	3,6	;RP1=0, select bank1
  4645     071A  00B7               	movwf	(log@x+3)^(0+128)
  4646     071B  1283               	bcf	3,5	;RP0=0, select bank0
  4647     071C  1303               	bcf	3,6	;RP1=0, select bank0
  4648     071D  0861               	movf	?___fladd+2,w
  4649     071E  1683               	bsf	3,5	;RP0=1, select bank1
  4650     071F  1303               	bcf	3,6	;RP1=0, select bank1
  4651     0720  00B6               	movwf	(log@x+2)^(0+128)
  4652     0721  1283               	bcf	3,5	;RP0=0, select bank0
  4653     0722  1303               	bcf	3,6	;RP1=0, select bank0
  4654     0723  0860               	movf	?___fladd+1,w
  4655     0724  1683               	bsf	3,5	;RP0=1, select bank1
  4656     0725  1303               	bcf	3,6	;RP1=0, select bank1
  4657     0726  00B5               	movwf	(log@x+1)^(0+128)
  4658     0727  1283               	bcf	3,5	;RP0=0, select bank0
  4659     0728  1303               	bcf	3,6	;RP1=0, select bank0
  4660     0729  085F               	movf	?___fladd,w
  4661     072A  1683               	bsf	3,5	;RP0=1, select bank1
  4662     072B  1303               	bcf	3,6	;RP1=0, select bank1
  4663     072C  00B4               	movwf	log@x^(0+128)
  4664     072D                     l3775:
  4665     072D  30FF               	movlw	255
  4666     072E  07B8               	addwf	log@exponent^(0+128),f
  4667     072F  1803               	skipnc
  4668     0730  0AB9               	incf	(log@exponent+1)^(0+128),f
  4669     0731  30FF               	movlw	255
  4670     0732  07B9               	addwf	(log@exponent+1)^(0+128),f
  4671     0733                     l3777:
  4672     0733  0837               	movf	(log@x+3)^(0+128),w
  4673     0734  00A7               	movwf	(eval_poly@x+3)^(0+128)
  4674     0735  0836               	movf	(log@x+2)^(0+128),w
  4675     0736  00A6               	movwf	(eval_poly@x+2)^(0+128)
  4676     0737  0835               	movf	(log@x+1)^(0+128),w
  4677     0738  00A5               	movwf	(eval_poly@x+1)^(0+128)
  4678     0739  0834               	movf	log@x^(0+128),w
  4679     073A  00A4               	movwf	eval_poly@x^(0+128)
  4680     073B  300B               	movlw	(low ((log@coeff-__stringbase)| (0+32768)))& (0+255)
  4681     073C  00A8               	movwf	eval_poly@d^(0+128)
  4682     073D  3008               	movlw	8
  4683     073E  00A9               	movwf	eval_poly@n^(0+128)
  4684     073F  3000               	movlw	0
  4685     0740  00AA               	movwf	(eval_poly@n^(0+128)+1)
  4686     0741  120A  158A  2172  120A  118A  	fcall	_eval_poly
  4687     0746  1683               	bsf	3,5	;RP0=1, select bank1
  4688     0747  1303               	bcf	3,6	;RP1=0, select bank1
  4689     0748  0827               	movf	(?_eval_poly+3)^(0+128),w
  4690     0749  00B7               	movwf	(log@x+3)^(0+128)
  4691     074A  0826               	movf	(?_eval_poly+2)^(0+128),w
  4692     074B  00B6               	movwf	(log@x+2)^(0+128)
  4693     074C  0825               	movf	(?_eval_poly+1)^(0+128),w
  4694     074D  00B5               	movwf	(log@x+1)^(0+128)
  4695     074E  0824               	movf	?_eval_poly^(0+128),w
  4696     074F  00B4               	movwf	log@x^(0+128)
  4697     0750                     l3779:
  4698     0750  0837               	movf	(log@x+3)^(0+128),w
  4699     0751  1283               	bcf	3,5	;RP0=0, select bank0
  4700     0752  1303               	bcf	3,6	;RP1=0, select bank0
  4701     0753  00E2               	movwf	___fladd@b+3
  4702     0754  1683               	bsf	3,5	;RP0=1, select bank1
  4703     0755  1303               	bcf	3,6	;RP1=0, select bank1
  4704     0756  0836               	movf	(log@x+2)^(0+128),w
  4705     0757  1283               	bcf	3,5	;RP0=0, select bank0
  4706     0758  1303               	bcf	3,6	;RP1=0, select bank0
  4707     0759  00E1               	movwf	___fladd@b+2
  4708     075A  1683               	bsf	3,5	;RP0=1, select bank1
  4709     075B  1303               	bcf	3,6	;RP1=0, select bank1
  4710     075C  0835               	movf	(log@x+1)^(0+128),w
  4711     075D  1283               	bcf	3,5	;RP0=0, select bank0
  4712     075E  1303               	bcf	3,6	;RP1=0, select bank0
  4713     075F  00E0               	movwf	___fladd@b+1
  4714     0760  1683               	bsf	3,5	;RP0=1, select bank1
  4715     0761  1303               	bcf	3,6	;RP1=0, select bank1
  4716     0762  0834               	movf	log@x^(0+128),w
  4717     0763  1283               	bcf	3,5	;RP0=0, select bank0
  4718     0764  1303               	bcf	3,6	;RP1=0, select bank0
  4719     0765  00DF               	movwf	___fladd@b
  4720     0766  303F               	movlw	63
  4721     0767  00AE               	movwf	___flmul@b+3
  4722     0768  3031               	movlw	49
  4723     0769  00AD               	movwf	___flmul@b+2
  4724     076A  3072               	movlw	114
  4725     076B  00AC               	movwf	___flmul@b+1
  4726     076C  3018               	movlw	24
  4727     076D  00AB               	movwf	___flmul@b
  4728     076E  1683               	bsf	3,5	;RP0=1, select bank1
  4729     076F  1303               	bcf	3,6	;RP1=0, select bank1
  4730     0770  0838               	movf	log@exponent^(0+128),w
  4731     0771  00F2               	movwf	___xxtofl@val
  4732     0772  0839               	movf	(log@exponent+1)^(0+128),w
  4733     0773  00F3               	movwf	___xxtofl@val+1
  4734     0774  3000               	movlw	0
  4735     0775  1BF3               	btfsc	___xxtofl@val+1,7
  4736     0776  30FF               	movlw	255
  4737     0777  00F4               	movwf	___xxtofl@val+2
  4738     0778  00F5               	movwf	___xxtofl@val+3
  4739     0779  3001               	movlw	1
  4740     077A  160A  118A  2675  120A  118A  	fcall	___xxtofl
  4741     077F  0875               	movf	?___xxtofl+3,w
  4742     0780  1283               	bcf	3,5	;RP0=0, select bank0
  4743     0781  1303               	bcf	3,6	;RP1=0, select bank0
  4744     0782  00B2               	movwf	___flmul@a+3
  4745     0783  0874               	movf	?___xxtofl+2,w
  4746     0784  00B1               	movwf	___flmul@a+2
  4747     0785  0873               	movf	?___xxtofl+1,w
  4748     0786  00B0               	movwf	___flmul@a+1
  4749     0787  0872               	movf	?___xxtofl,w
  4750     0788  00AF               	movwf	___flmul@a
  4751     0789  120A  118A  2035  120A  118A  	fcall	___flmul
  4752     078E  1283               	bcf	3,5	;RP0=0, select bank0
  4753     078F  1303               	bcf	3,6	;RP1=0, select bank0
  4754     0790  082E               	movf	?___flmul+3,w
  4755     0791  00E6               	movwf	___fladd@a+3
  4756     0792  082D               	movf	?___flmul+2,w
  4757     0793  00E5               	movwf	___fladd@a+2
  4758     0794  082C               	movf	?___flmul+1,w
  4759     0795  00E4               	movwf	___fladd@a+1
  4760     0796  082B               	movf	?___flmul,w
  4761     0797  00E3               	movwf	___fladd@a
  4762     0798  120A  118A  237A  120A  118A  	fcall	___fladd
  4763     079D  1283               	bcf	3,5	;RP0=0, select bank0
  4764     079E  1303               	bcf	3,6	;RP1=0, select bank0
  4765     079F  0862               	movf	?___fladd+3,w
  4766     07A0  1683               	bsf	3,5	;RP0=1, select bank1
  4767     07A1  1303               	bcf	3,6	;RP1=0, select bank1
  4768     07A2  00B7               	movwf	(?_log+3)^(0+128)
  4769     07A3  1283               	bcf	3,5	;RP0=0, select bank0
  4770     07A4  1303               	bcf	3,6	;RP1=0, select bank0
  4771     07A5  0861               	movf	?___fladd+2,w
  4772     07A6  1683               	bsf	3,5	;RP0=1, select bank1
  4773     07A7  1303               	bcf	3,6	;RP1=0, select bank1
  4774     07A8  00B6               	movwf	(?_log+2)^(0+128)
  4775     07A9  1283               	bcf	3,5	;RP0=0, select bank0
  4776     07AA  1303               	bcf	3,6	;RP1=0, select bank0
  4777     07AB  0860               	movf	?___fladd+1,w
  4778     07AC  1683               	bsf	3,5	;RP0=1, select bank1
  4779     07AD  1303               	bcf	3,6	;RP1=0, select bank1
  4780     07AE  00B5               	movwf	(?_log+1)^(0+128)
  4781     07AF  1283               	bcf	3,5	;RP0=0, select bank0
  4782     07B0  1303               	bcf	3,6	;RP1=0, select bank0
  4783     07B1  085F               	movf	?___fladd,w
  4784     07B2  1683               	bsf	3,5	;RP0=1, select bank1
  4785     07B3  1303               	bcf	3,6	;RP1=0, select bank1
  4786     07B4  00B4               	movwf	?_log^(0+128)
  4787     07B5                     l870:
  4788     07B5  0008               	return
  4789     07B6                     __end_of_log:
  4790                           
  4791                           	psect	text14
  4792     147D                     __ptext14:	
  4793 ;; *************** function _frexp *****************
  4794 ;; Defined at:
  4795 ;;		line 254 in file "C:\Program Files\Microchip\xc8\v2.41\pic\sources\c90\common\frexp.c"
  4796 ;; Parameters:    Size  Location     Type
  4797 ;;  value           4    4[BANK0 ] int 
  4798 ;;  eptr            1    8[BANK0 ] PTR int 
  4799 ;;		 -> log@exponent(2), 
  4800 ;; Auto vars:     Size  Location     Type
  4801 ;;		None
  4802 ;; Return value:  Size  Location     Type
  4803 ;;                  4    4[BANK0 ] PTR int 
  4804 ;; Registers used:
  4805 ;;		wreg, fsr0l, fsr0h, status,2, status,0, btemp+1, pclath, cstack
  4806 ;; Tracked objects:
  4807 ;;		On entry : 0/0
  4808 ;;		On exit  : 0/0
  4809 ;;		Unchanged: 0/0
  4810 ;; Data sizes:     COMMON   BANK0   BANK1   BANK3   BANK2
  4811 ;;      Params:         0       5       0       0       0
  4812 ;;      Locals:         0       0       0       0       0
  4813 ;;      Temps:          0       2       0       0       0
  4814 ;;      Totals:         0       7       0       0       0
  4815 ;;Total ram usage:        7 bytes
  4816 ;; Hardware stack levels used: 1
  4817 ;; Hardware stack levels required when called: 2
  4818 ;; This function calls:
  4819 ;;		___fleq
  4820 ;; This function is called by:
  4821 ;;		_log
  4822 ;; This function uses a non-reentrant model
  4823 ;;
  4824                           
  4825     147D                     _frexp:	
  4826                           ;psect for function _frexp
  4827                           
  4828     147D                     l3711:	
  4829                           ;incstack = 0
  4830                           ; Regs used in _frexp: [wreg-fsr0h+status,2+status,0+btemp+1+pclath+cstack]
  4831                           
  4832     147D  1283               	bcf	3,5	;RP0=0, select bank0
  4833     147E  1303               	bcf	3,6	;RP1=0, select bank0
  4834     147F  0827               	movf	frexp@value+3,w
  4835     1480  00F5               	movwf	___fleq@ff1+3
  4836     1481  0826               	movf	frexp@value+2,w
  4837     1482  00F4               	movwf	___fleq@ff1+2
  4838     1483  0825               	movf	frexp@value+1,w
  4839     1484  00F3               	movwf	___fleq@ff1+1
  4840     1485  0824               	movf	frexp@value,w
  4841     1486  00F2               	movwf	___fleq@ff1
  4842     1487  3000               	movlw	0
  4843     1488  00F9               	movwf	___fleq@ff2+3
  4844     1489  3000               	movlw	0
  4845     148A  00F8               	movwf	___fleq@ff2+2
  4846     148B  3000               	movlw	0
  4847     148C  00F7               	movwf	___fleq@ff2+1
  4848     148D  3000               	movlw	0
  4849     148E  00F6               	movwf	___fleq@ff2
  4850     148F  160A  118A  242D  160A  118A  	fcall	___fleq
  4851     1494  1C03               	btfss	3,0
  4852     1495  2C97               	goto	u4941
  4853     1496  2C98               	goto	u4940
  4854     1497                     u4941:
  4855     1497  2CA9               	goto	l3719
  4856     1498                     u4940:
  4857     1498                     l3713:
  4858     1498  1283               	bcf	3,5	;RP0=0, select bank0
  4859     1499  1303               	bcf	3,6	;RP1=0, select bank0
  4860     149A  0828               	movf	frexp@eptr,w
  4861     149B  0084               	movwf	4
  4862     149C  1383               	bcf	3,7	;select IRP bank0
  4863     149D  0180               	clrf	0
  4864     149E  0A84               	incf	4,f
  4865     149F  0180               	clrf	0
  4866     14A0                     l3715:
  4867     14A0  3000               	movlw	0
  4868     14A1  00A7               	movwf	?_frexp+3
  4869     14A2  3000               	movlw	0
  4870     14A3  00A6               	movwf	?_frexp+2
  4871     14A4  3000               	movlw	0
  4872     14A5  00A5               	movwf	?_frexp+1
  4873     14A6  3000               	movlw	0
  4874     14A7  00A4               	movwf	?_frexp
  4875     14A8  2CD8               	goto	l888
  4876     14A9                     l3719:
  4877     14A9  1283               	bcf	3,5	;RP0=0, select bank0
  4878     14AA  1303               	bcf	3,6	;RP1=0, select bank0
  4879     14AB  0827               	movf	frexp@value+3,w
  4880     14AC  397F               	andlw	127
  4881     14AD  00A9               	movwf	??_frexp
  4882     14AE  01AA               	clrf	??_frexp+1
  4883     14AF  1003               	clrc
  4884     14B0  0DA9               	rlf	??_frexp,f
  4885     14B1  0DAA               	rlf	??_frexp+1,f
  4886     14B2  0828               	movf	frexp@eptr,w
  4887     14B3  0084               	movwf	4
  4888     14B4  0829               	movf	??_frexp,w
  4889     14B5  1383               	bcf	3,7	;select IRP bank0
  4890     14B6  0080               	movwf	0
  4891     14B7  0A84               	incf	4,f
  4892     14B8  082A               	movf	??_frexp+1,w
  4893     14B9  0080               	movwf	0
  4894     14BA  0D26               	rlf	frexp@value+2,w
  4895     14BB  0D26               	rlf	frexp@value+2,w
  4896     14BC  3901               	andlw	1
  4897     14BD  00A9               	movwf	??_frexp
  4898     14BE  01AA               	clrf	??_frexp+1
  4899     14BF  0828               	movf	frexp@eptr,w
  4900     14C0  0084               	movwf	4
  4901     14C1  0829               	movf	??_frexp,w
  4902     14C2  0480               	iorwf	0,f
  4903     14C3  0A84               	incf	4,f
  4904     14C4  082A               	movf	??_frexp+1,w
  4905     14C5  0480               	iorwf	0,f
  4906     14C6                     l3721:
  4907     14C6  0828               	movf	frexp@eptr,w
  4908     14C7  0084               	movwf	4
  4909     14C8  3082               	movlw	130
  4910     14C9  0780               	addwf	0,f
  4911     14CA  0F84               	incfsz	4,f
  4912     14CB  0800               	movf	0,w
  4913     14CC  1803               	skipnc
  4914     14CD  0A00               	incf	0,w
  4915     14CE  00FF               	movwf	btemp+1
  4916     14CF  30FF               	movlw	255
  4917     14D0  077F               	addwf	btemp+1,w
  4918     14D1  0080               	movwf	0
  4919     14D2  0384               	decf	4,f
  4920     14D3                     l3723:
  4921     14D3  0827               	movf	frexp@value+3,w
  4922     14D4  3980               	andlw	-128
  4923     14D5  383F               	iorlw	63
  4924     14D6  00A7               	movwf	frexp@value+3
  4925     14D7                     l3725:
  4926     14D7  13A6               	bcf	frexp@value+2,7
  4927     14D8                     l3727:
  4928     14D8                     l888:
  4929     14D8  0008               	return
  4930     14D9                     __end_of_frexp:
  4931                           
  4932                           	psect	text15
  4933     142D                     __ptext15:	
  4934 ;; *************** function ___fleq *****************
  4935 ;; Defined at:
  4936 ;;		line 4 in file "C:\Program Files\Microchip\xc8\v2.41\pic\sources\c90\common\fleq.c"
  4937 ;; Parameters:    Size  Location     Type
  4938 ;;  ff1             4    2[COMMON] PTR int 
  4939 ;;  ff2             4    6[COMMON] PTR int 
  4940 ;; Auto vars:     Size  Location     Type
  4941 ;;		None
  4942 ;; Return value:  Size  Location     Type
  4943 ;;		None               void
  4944 ;; Registers used:
  4945 ;;		wreg, status,2, status,0
  4946 ;; Tracked objects:
  4947 ;;		On entry : 0/0
  4948 ;;		On exit  : 0/0
  4949 ;;		Unchanged: 0/0
  4950 ;; Data sizes:     COMMON   BANK0   BANK1   BANK3   BANK2
  4951 ;;      Params:         8       0       0       0       0
  4952 ;;      Locals:         0       0       0       0       0
  4953 ;;      Temps:          0       4       0       0       0
  4954 ;;      Totals:         8       4       0       0       0
  4955 ;;Total ram usage:       12 bytes
  4956 ;; Hardware stack levels used: 1
  4957 ;; Hardware stack levels required when called: 1
  4958 ;; This function calls:
  4959 ;;		Nothing
  4960 ;; This function is called by:
  4961 ;;		_log
  4962 ;;		_frexp
  4963 ;; This function uses a non-reentrant model
  4964 ;;
  4965                           
  4966     142D                     ___fleq:	
  4967                           ;psect for function ___fleq
  4968                           
  4969     142D                     l2293:	
  4970                           ;incstack = 0
  4971                           ; Regs used in ___fleq: [wreg+status,2+status,0]
  4972                           
  4973     142D  3000               	movlw	0
  4974     142E  0572               	andwf	___fleq@ff1,w
  4975     142F  1283               	bcf	3,5	;RP0=0, select bank0
  4976     1430  1303               	bcf	3,6	;RP1=0, select bank0
  4977     1431  00A0               	movwf	??___fleq
  4978     1432  3000               	movlw	0
  4979     1433  0573               	andwf	___fleq@ff1+1,w
  4980     1434  00A1               	movwf	??___fleq+1
  4981     1435  3080               	movlw	128
  4982     1436  0574               	andwf	___fleq@ff1+2,w
  4983     1437  00A2               	movwf	??___fleq+2
  4984     1438  307F               	movlw	127
  4985     1439  0575               	andwf	___fleq@ff1+3,w
  4986     143A  00A3               	movwf	??___fleq+3
  4987     143B  0823               	movf	??___fleq+3,w
  4988     143C  0422               	iorwf	??___fleq+2,w
  4989     143D  0421               	iorwf	??___fleq+1,w
  4990     143E  0420               	iorwf	??___fleq,w
  4991     143F  1D03               	skipz
  4992     1440  2C42               	goto	u2301
  4993     1441  2C43               	goto	u2300
  4994     1442                     u2301:
  4995     1442  2C4B               	goto	l579
  4996     1443                     u2300:
  4997     1443                     l2295:
  4998     1443  3000               	movlw	0
  4999     1444  00F5               	movwf	___fleq@ff1+3
  5000     1445  3000               	movlw	0
  5001     1446  00F4               	movwf	___fleq@ff1+2
  5002     1447  3000               	movlw	0
  5003     1448  00F3               	movwf	___fleq@ff1+1
  5004     1449  3000               	movlw	0
  5005     144A  00F2               	movwf	___fleq@ff1
  5006     144B                     l579:
  5007     144B  3000               	movlw	0
  5008     144C  0576               	andwf	___fleq@ff2,w
  5009     144D  00A0               	movwf	??___fleq
  5010     144E  3000               	movlw	0
  5011     144F  0577               	andwf	___fleq@ff2+1,w
  5012     1450  00A1               	movwf	??___fleq+1
  5013     1451  3080               	movlw	128
  5014     1452  0578               	andwf	___fleq@ff2+2,w
  5015     1453  00A2               	movwf	??___fleq+2
  5016     1454  307F               	movlw	127
  5017     1455  0579               	andwf	___fleq@ff2+3,w
  5018     1456  00A3               	movwf	??___fleq+3
  5019     1457  0823               	movf	??___fleq+3,w
  5020     1458  0422               	iorwf	??___fleq+2,w
  5021     1459  0421               	iorwf	??___fleq+1,w
  5022     145A  0420               	iorwf	??___fleq,w
  5023     145B  1D03               	skipz
  5024     145C  2C5E               	goto	u2311
  5025     145D  2C5F               	goto	u2310
  5026     145E                     u2311:
  5027     145E  2C67               	goto	l580
  5028     145F                     u2310:
  5029     145F                     l2297:
  5030     145F  3000               	movlw	0
  5031     1460  00F9               	movwf	___fleq@ff2+3
  5032     1461  3000               	movlw	0
  5033     1462  00F8               	movwf	___fleq@ff2+2
  5034     1463  3000               	movlw	0
  5035     1464  00F7               	movwf	___fleq@ff2+1
  5036     1465  3000               	movlw	0
  5037     1466  00F6               	movwf	___fleq@ff2
  5038     1467                     l580:
  5039     1467  0879               	movf	___fleq@ff2+3,w
  5040     1468  0675               	xorwf	___fleq@ff1+3,w
  5041     1469  1D03               	skipz
  5042     146A  2C75               	goto	u2325
  5043     146B  0878               	movf	___fleq@ff2+2,w
  5044     146C  0674               	xorwf	___fleq@ff1+2,w
  5045     146D  1D03               	skipz
  5046     146E  2C75               	goto	u2325
  5047     146F  0877               	movf	___fleq@ff2+1,w
  5048     1470  0673               	xorwf	___fleq@ff1+1,w
  5049     1471  1D03               	skipz
  5050     1472  2C75               	goto	u2325
  5051     1473  0876               	movf	___fleq@ff2,w
  5052     1474  0672               	xorwf	___fleq@ff1,w
  5053     1475                     u2325:
  5054     1475  1903               	skipnz
  5055     1476  2C78               	goto	u2321
  5056     1477  2C79               	goto	u2320
  5057     1478                     u2321:
  5058     1478  2C7B               	goto	l2301
  5059     1479                     u2320:
  5060     1479                     l2299:
  5061     1479  1003               	clrc
  5062     147A  2C7C               	goto	l581
  5063     147B                     l2301:
  5064     147B  1403               	setc
  5065     147C                     l581:
  5066     147C  0008               	return
  5067     147D                     __end_of___fleq:
  5068                           
  5069                           	psect	text16
  5070     0972                     __ptext16:	
  5071 ;; *************** function _eval_poly *****************
  5072 ;; Defined at:
  5073 ;;		line 4 in file "C:\Program Files\Microchip\xc8\v2.41\pic\sources\c90\common\evalpoly.c"
  5074 ;; Parameters:    Size  Location     Type
  5075 ;;  x               4    4[BANK1 ] PTR int 
  5076 ;;  d               1    8[BANK1 ] PTR const 
  5077 ;;		 -> log@coeff(36), 
  5078 ;;  n               2    9[BANK1 ] int 
  5079 ;; Auto vars:     Size  Location     Type
  5080 ;;  res             4   16[BANK1 ] int 
  5081 ;; Return value:  Size  Location     Type
  5082 ;;                  4    4[BANK1 ] int 
  5083 ;; Registers used:
  5084 ;;		wreg, fsr0l, fsr0h, status,2, status,0, btemp+1, pclath, cstack
  5085 ;; Tracked objects:
  5086 ;;		On entry : 0/0
  5087 ;;		On exit  : 0/0
  5088 ;;		Unchanged: 0/0
  5089 ;; Data sizes:     COMMON   BANK0   BANK1   BANK3   BANK2
  5090 ;;      Params:         0       0       7       0       0
  5091 ;;      Locals:         0       0       4       0       0
  5092 ;;      Temps:          0       0       5       0       0
  5093 ;;      Totals:         0       0      16       0       0
  5094 ;;Total ram usage:       16 bytes
  5095 ;; Hardware stack levels used: 1
  5096 ;; Hardware stack levels required when called: 3
  5097 ;; This function calls:
  5098 ;;		___fladd
  5099 ;;		___flmul
  5100 ;; This function is called by:
  5101 ;;		_log
  5102 ;; This function uses a non-reentrant model
  5103 ;;
  5104                           
  5105     0972                     _eval_poly:	
  5106                           ;psect for function _eval_poly
  5107                           
  5108     0972                     l3731:	
  5109                           ;incstack = 0
  5110                           ; Regs used in _eval_poly: [wreg-fsr0h+status,2+status,0+btemp+1+pclath+cstack]
  5111                           
  5112     0972  1683               	bsf	3,5	;RP0=1, select bank1
  5113     0973  1303               	bcf	3,6	;RP1=0, select bank1
  5114     0974  0829               	movf	eval_poly@n^(0+128),w
  5115     0975  00AB               	movwf	??_eval_poly^(0+128)
  5116     0976  3001               	movlw	1
  5117     0977                     u4955:
  5118     0977  1003               	clrc
  5119     0978  0DAB               	rlf	??_eval_poly^(0+128),f
  5120     0979  3EFF               	addlw	-1
  5121     097A  1D03               	skipz
  5122     097B  2977               	goto	u4955
  5123     097C  1003               	clrc
  5124     097D  0D2B               	rlf	??_eval_poly^(0+128),w
  5125     097E  0728               	addwf	eval_poly@d^(0+128),w
  5126     097F  0084               	movwf	4
  5127     0980  120A  158A  200A  120A  158A  	fcall	stringdir
  5128     0985  00AC               	movwf	(??_eval_poly+1)^(0+128)
  5129     0986  120A  158A  200A  120A  158A  	fcall	stringdir
  5130     098B  00AD               	movwf	((??_eval_poly+1)^(0+128)+1)
  5131     098C  120A  158A  200A  120A  158A  	fcall	stringdir
  5132     0991  00AE               	movwf	((??_eval_poly+1)^(0+128)+2)
  5133     0992  120A  158A  200A  120A  158A  	fcall	stringdir
  5134     0997  00AF               	movwf	((??_eval_poly+1)^(0+128)+3)
  5135     0998  082F               	movf	(??_eval_poly+4)^(0+128),w
  5136     0999  00B3               	movwf	(eval_poly@res+3)^(0+128)
  5137     099A  082E               	movf	(??_eval_poly+3)^(0+128),w
  5138     099B  00B2               	movwf	(eval_poly@res+2)^(0+128)
  5139     099C  082D               	movf	(??_eval_poly+2)^(0+128),w
  5140     099D  00B1               	movwf	(eval_poly@res+1)^(0+128)
  5141     099E  082C               	movf	(??_eval_poly+1)^(0+128),w
  5142     099F  00B0               	movwf	eval_poly@res^(0+128)
  5143     09A0  2A3D               	goto	l3735
  5144     09A1                     l3733:
  5145     09A1  30FF               	movlw	255
  5146     09A2  07A9               	addwf	eval_poly@n^(0+128),f
  5147     09A3  1803               	skipnc
  5148     09A4  0AAA               	incf	(eval_poly@n+1)^(0+128),f
  5149     09A5  30FF               	movlw	255
  5150     09A6  07AA               	addwf	(eval_poly@n+1)^(0+128),f
  5151     09A7  0829               	movf	eval_poly@n^(0+128),w
  5152     09A8  00AB               	movwf	??_eval_poly^(0+128)
  5153     09A9  3001               	movlw	1
  5154     09AA                     u4965:
  5155     09AA  1003               	clrc
  5156     09AB  0DAB               	rlf	??_eval_poly^(0+128),f
  5157     09AC  3EFF               	addlw	-1
  5158     09AD  1D03               	skipz
  5159     09AE  29AA               	goto	u4965
  5160     09AF  1003               	clrc
  5161     09B0  0D2B               	rlf	??_eval_poly^(0+128),w
  5162     09B1  0728               	addwf	eval_poly@d^(0+128),w
  5163     09B2  0084               	movwf	4
  5164     09B3  120A  158A  200A  120A  158A  	fcall	stringdir
  5165     09B8  00AC               	movwf	(??_eval_poly+1)^(0+128)
  5166     09B9  120A  158A  200A  120A  158A  	fcall	stringdir
  5167     09BE  00AD               	movwf	((??_eval_poly+1)^(0+128)+1)
  5168     09BF  120A  158A  200A  120A  158A  	fcall	stringdir
  5169     09C4  00AE               	movwf	((??_eval_poly+1)^(0+128)+2)
  5170     09C5  120A  158A  200A  120A  158A  	fcall	stringdir
  5171     09CA  00AF               	movwf	((??_eval_poly+1)^(0+128)+3)
  5172     09CB  082F               	movf	(??_eval_poly+4)^(0+128),w
  5173     09CC  1283               	bcf	3,5	;RP0=0, select bank0
  5174     09CD  1303               	bcf	3,6	;RP1=0, select bank0
  5175     09CE  00E2               	movwf	___fladd@b+3
  5176     09CF  1683               	bsf	3,5	;RP0=1, select bank1
  5177     09D0  1303               	bcf	3,6	;RP1=0, select bank1
  5178     09D1  082E               	movf	(??_eval_poly+3)^(0+128),w
  5179     09D2  1283               	bcf	3,5	;RP0=0, select bank0
  5180     09D3  1303               	bcf	3,6	;RP1=0, select bank0
  5181     09D4  00E1               	movwf	___fladd@b+2
  5182     09D5  1683               	bsf	3,5	;RP0=1, select bank1
  5183     09D6  1303               	bcf	3,6	;RP1=0, select bank1
  5184     09D7  082D               	movf	(??_eval_poly+2)^(0+128),w
  5185     09D8  1283               	bcf	3,5	;RP0=0, select bank0
  5186     09D9  1303               	bcf	3,6	;RP1=0, select bank0
  5187     09DA  00E0               	movwf	___fladd@b+1
  5188     09DB  1683               	bsf	3,5	;RP0=1, select bank1
  5189     09DC  1303               	bcf	3,6	;RP1=0, select bank1
  5190     09DD  082C               	movf	(??_eval_poly+1)^(0+128),w
  5191     09DE  1283               	bcf	3,5	;RP0=0, select bank0
  5192     09DF  1303               	bcf	3,6	;RP1=0, select bank0
  5193     09E0  00DF               	movwf	___fladd@b
  5194     09E1  1683               	bsf	3,5	;RP0=1, select bank1
  5195     09E2  1303               	bcf	3,6	;RP1=0, select bank1
  5196     09E3  0833               	movf	(eval_poly@res+3)^(0+128),w
  5197     09E4  1283               	bcf	3,5	;RP0=0, select bank0
  5198     09E5  1303               	bcf	3,6	;RP1=0, select bank0
  5199     09E6  00AE               	movwf	___flmul@b+3
  5200     09E7  1683               	bsf	3,5	;RP0=1, select bank1
  5201     09E8  1303               	bcf	3,6	;RP1=0, select bank1
  5202     09E9  0832               	movf	(eval_poly@res+2)^(0+128),w
  5203     09EA  1283               	bcf	3,5	;RP0=0, select bank0
  5204     09EB  1303               	bcf	3,6	;RP1=0, select bank0
  5205     09EC  00AD               	movwf	___flmul@b+2
  5206     09ED  1683               	bsf	3,5	;RP0=1, select bank1
  5207     09EE  1303               	bcf	3,6	;RP1=0, select bank1
  5208     09EF  0831               	movf	(eval_poly@res+1)^(0+128),w
  5209     09F0  1283               	bcf	3,5	;RP0=0, select bank0
  5210     09F1  1303               	bcf	3,6	;RP1=0, select bank0
  5211     09F2  00AC               	movwf	___flmul@b+1
  5212     09F3  1683               	bsf	3,5	;RP0=1, select bank1
  5213     09F4  1303               	bcf	3,6	;RP1=0, select bank1
  5214     09F5  0830               	movf	eval_poly@res^(0+128),w
  5215     09F6  1283               	bcf	3,5	;RP0=0, select bank0
  5216     09F7  1303               	bcf	3,6	;RP1=0, select bank0
  5217     09F8  00AB               	movwf	___flmul@b
  5218     09F9  1683               	bsf	3,5	;RP0=1, select bank1
  5219     09FA  1303               	bcf	3,6	;RP1=0, select bank1
  5220     09FB  0827               	movf	(eval_poly@x+3)^(0+128),w
  5221     09FC  1283               	bcf	3,5	;RP0=0, select bank0
  5222     09FD  1303               	bcf	3,6	;RP1=0, select bank0
  5223     09FE  00B2               	movwf	___flmul@a+3
  5224     09FF  1683               	bsf	3,5	;RP0=1, select bank1
  5225     0A00  1303               	bcf	3,6	;RP1=0, select bank1
  5226     0A01  0826               	movf	(eval_poly@x+2)^(0+128),w
  5227     0A02  1283               	bcf	3,5	;RP0=0, select bank0
  5228     0A03  1303               	bcf	3,6	;RP1=0, select bank0
  5229     0A04  00B1               	movwf	___flmul@a+2
  5230     0A05  1683               	bsf	3,5	;RP0=1, select bank1
  5231     0A06  1303               	bcf	3,6	;RP1=0, select bank1
  5232     0A07  0825               	movf	(eval_poly@x+1)^(0+128),w
  5233     0A08  1283               	bcf	3,5	;RP0=0, select bank0
  5234     0A09  1303               	bcf	3,6	;RP1=0, select bank0
  5235     0A0A  00B0               	movwf	___flmul@a+1
  5236     0A0B  1683               	bsf	3,5	;RP0=1, select bank1
  5237     0A0C  1303               	bcf	3,6	;RP1=0, select bank1
  5238     0A0D  0824               	movf	eval_poly@x^(0+128),w
  5239     0A0E  1283               	bcf	3,5	;RP0=0, select bank0
  5240     0A0F  1303               	bcf	3,6	;RP1=0, select bank0
  5241     0A10  00AF               	movwf	___flmul@a
  5242     0A11  120A  118A  2035  120A  158A  	fcall	___flmul
  5243     0A16  1283               	bcf	3,5	;RP0=0, select bank0
  5244     0A17  1303               	bcf	3,6	;RP1=0, select bank0
  5245     0A18  082E               	movf	?___flmul+3,w
  5246     0A19  00E6               	movwf	___fladd@a+3
  5247     0A1A  082D               	movf	?___flmul+2,w
  5248     0A1B  00E5               	movwf	___fladd@a+2
  5249     0A1C  082C               	movf	?___flmul+1,w
  5250     0A1D  00E4               	movwf	___fladd@a+1
  5251     0A1E  082B               	movf	?___flmul,w
  5252     0A1F  00E3               	movwf	___fladd@a
  5253     0A20  120A  118A  237A  120A  158A  	fcall	___fladd
  5254     0A25  1283               	bcf	3,5	;RP0=0, select bank0
  5255     0A26  1303               	bcf	3,6	;RP1=0, select bank0
  5256     0A27  0862               	movf	?___fladd+3,w
  5257     0A28  1683               	bsf	3,5	;RP0=1, select bank1
  5258     0A29  1303               	bcf	3,6	;RP1=0, select bank1
  5259     0A2A  00B3               	movwf	(eval_poly@res+3)^(0+128)
  5260     0A2B  1283               	bcf	3,5	;RP0=0, select bank0
  5261     0A2C  1303               	bcf	3,6	;RP1=0, select bank0
  5262     0A2D  0861               	movf	?___fladd+2,w
  5263     0A2E  1683               	bsf	3,5	;RP0=1, select bank1
  5264     0A2F  1303               	bcf	3,6	;RP1=0, select bank1
  5265     0A30  00B2               	movwf	(eval_poly@res+2)^(0+128)
  5266     0A31  1283               	bcf	3,5	;RP0=0, select bank0
  5267     0A32  1303               	bcf	3,6	;RP1=0, select bank0
  5268     0A33  0860               	movf	?___fladd+1,w
  5269     0A34  1683               	bsf	3,5	;RP0=1, select bank1
  5270     0A35  1303               	bcf	3,6	;RP1=0, select bank1
  5271     0A36  00B1               	movwf	(eval_poly@res+1)^(0+128)
  5272     0A37  1283               	bcf	3,5	;RP0=0, select bank0
  5273     0A38  1303               	bcf	3,6	;RP1=0, select bank0
  5274     0A39  085F               	movf	?___fladd,w
  5275     0A3A  1683               	bsf	3,5	;RP0=1, select bank1
  5276     0A3B  1303               	bcf	3,6	;RP1=0, select bank1
  5277     0A3C  00B0               	movwf	eval_poly@res^(0+128)
  5278     0A3D                     l3735:
  5279     0A3D  0829               	movf	eval_poly@n^(0+128),w
  5280     0A3E  042A               	iorwf	(eval_poly@n+1)^(0+128),w
  5281     0A3F  1D03               	btfss	3,2
  5282     0A40  2A42               	goto	u4971
  5283     0A41  2A43               	goto	u4970
  5284     0A42                     u4971:
  5285     0A42  29A1               	goto	l3733
  5286     0A43                     u4970:
  5287     0A43                     l3737:
  5288     0A43  0833               	movf	(eval_poly@res+3)^(0+128),w
  5289     0A44  00A7               	movwf	(?_eval_poly+3)^(0+128)
  5290     0A45  0832               	movf	(eval_poly@res+2)^(0+128),w
  5291     0A46  00A6               	movwf	(?_eval_poly+2)^(0+128)
  5292     0A47  0831               	movf	(eval_poly@res+1)^(0+128),w
  5293     0A48  00A5               	movwf	(?_eval_poly+1)^(0+128)
  5294     0A49  0830               	movf	eval_poly@res^(0+128),w
  5295     0A4A  00A4               	movwf	?_eval_poly^(0+128)
  5296     0A4B                     l882:
  5297     0A4B  0008               	return
  5298     0A4C                     __end_of_eval_poly:
  5299                           
  5300                           	psect	text17
  5301     0035                     __ptext17:	
  5302 ;; *************** function ___flmul *****************
  5303 ;; Defined at:
  5304 ;;		line 8 in file "C:\Program Files\Microchip\xc8\v2.41\pic\sources\c90\common\sprcmul.c"
  5305 ;; Parameters:    Size  Location     Type
  5306 ;;  b               4   11[BANK0 ] int 
  5307 ;;  a               4   15[BANK0 ] int 
  5308 ;; Auto vars:     Size  Location     Type
  5309 ;;  prod            4   31[BANK0 ] struct .
  5310 ;;  grs             4   26[BANK0 ] unsigned long 
  5311 ;;  temp            2   35[BANK0 ] struct .
  5312 ;;  bexp            1   30[BANK0 ] unsigned char 
  5313 ;;  aexp            1   25[BANK0 ] unsigned char 
  5314 ;;  sign            1   24[BANK0 ] unsigned char 
  5315 ;; Return value:  Size  Location     Type
  5316 ;;                  4   11[BANK0 ] unsigned char 
  5317 ;; Registers used:
  5318 ;;		wreg, status,2, status,0, btemp+1, pclath, cstack
  5319 ;; Tracked objects:
  5320 ;;		On entry : 0/0
  5321 ;;		On exit  : 0/0
  5322 ;;		Unchanged: 0/0
  5323 ;; Data sizes:     COMMON   BANK0   BANK1   BANK3   BANK2
  5324 ;;      Params:         0       8       0       0       0
  5325 ;;      Locals:         0      13       0       0       0
  5326 ;;      Temps:          0       5       0       0       0
  5327 ;;      Totals:         0      26       0       0       0
  5328 ;;Total ram usage:       26 bytes
  5329 ;; Hardware stack levels used: 1
  5330 ;; Hardware stack levels required when called: 2
  5331 ;; This function calls:
  5332 ;;		__Umul8_16
  5333 ;; This function is called by:
  5334 ;;		_log
  5335 ;;		_eval_poly
  5336 ;; This function uses a non-reentrant model
  5337 ;;
  5338                           
  5339     0035                     ___flmul:	
  5340                           ;psect for function ___flmul
  5341                           
  5342     0035                     l3541:	
  5343                           ;incstack = 0
  5344                           ; Regs used in ___flmul: [wreg+status,2+status,0+btemp+1+pclath+cstack]
  5345                           
  5346     0035  1283               	bcf	3,5	;RP0=0, select bank0
  5347     0036  1303               	bcf	3,6	;RP1=0, select bank0
  5348     0037  082E               	movf	___flmul@b+3,w
  5349     0038  3980               	andlw	128
  5350     0039  00B8               	movwf	___flmul@sign
  5351     003A                     l3543:
  5352     003A  082E               	movf	___flmul@b+3,w
  5353     003B  00B3               	movwf	??___flmul
  5354     003C  0733               	addwf	??___flmul,w
  5355     003D  00BE               	movwf	___flmul@bexp
  5356     003E                     l3545:
  5357     003E  1FAD               	btfss	___flmul@b+2,7
  5358     003F  2841               	goto	u4551
  5359     0040  2842               	goto	u4550
  5360     0041                     u4551:
  5361     0041  2843               	goto	l3549
  5362     0042                     u4550:
  5363     0042                     l3547:
  5364     0042  143E               	bsf	___flmul@bexp,0
  5365     0043                     l3549:
  5366     0043  083E               	movf	___flmul@bexp,w
  5367     0044  1903               	btfsc	3,2
  5368     0045  2847               	goto	u4561
  5369     0046  2848               	goto	u4560
  5370     0047                     u4561:
  5371     0047  2857               	goto	l3557
  5372     0048                     u4560:
  5373     0048                     l3551:
  5374     0048  0A3E               	incf	___flmul@bexp,w
  5375     0049  1D03               	btfss	3,2
  5376     004A  284C               	goto	u4571
  5377     004B  284D               	goto	u4570
  5378     004C                     u4571:
  5379     004C  2855               	goto	l3555
  5380     004D                     u4570:
  5381     004D                     l3553:
  5382     004D  3000               	movlw	0
  5383     004E  00AE               	movwf	___flmul@b+3
  5384     004F  3000               	movlw	0
  5385     0050  00AD               	movwf	___flmul@b+2
  5386     0051  3000               	movlw	0
  5387     0052  00AC               	movwf	___flmul@b+1
  5388     0053  3000               	movlw	0
  5389     0054  00AB               	movwf	___flmul@b
  5390     0055                     l3555:
  5391     0055  17AD               	bsf	___flmul@b+2,7
  5392     0056  285F               	goto	l3559
  5393     0057                     l3557:
  5394     0057  3000               	movlw	0
  5395     0058  00AE               	movwf	___flmul@b+3
  5396     0059  3000               	movlw	0
  5397     005A  00AD               	movwf	___flmul@b+2
  5398     005B  3000               	movlw	0
  5399     005C  00AC               	movwf	___flmul@b+1
  5400     005D  3000               	movlw	0
  5401     005E  00AB               	movwf	___flmul@b
  5402     005F                     l3559:
  5403     005F  0832               	movf	___flmul@a+3,w
  5404     0060  3980               	andlw	128
  5405     0061  00FF               	movwf	btemp+1
  5406     0062  087F               	movf	btemp+1,w
  5407     0063  06B8               	xorwf	___flmul@sign,f
  5408     0064                     l3561:
  5409     0064  0832               	movf	___flmul@a+3,w
  5410     0065  00B3               	movwf	??___flmul
  5411     0066  0733               	addwf	??___flmul,w
  5412     0067  00B9               	movwf	___flmul@aexp
  5413     0068                     l3563:
  5414     0068  1FB1               	btfss	___flmul@a+2,7
  5415     0069  286B               	goto	u4581
  5416     006A  286C               	goto	u4580
  5417     006B                     u4581:
  5418     006B  286D               	goto	l3567
  5419     006C                     u4580:
  5420     006C                     l3565:
  5421     006C  1439               	bsf	___flmul@aexp,0
  5422     006D                     l3567:
  5423     006D  0839               	movf	___flmul@aexp,w
  5424     006E  1903               	btfsc	3,2
  5425     006F  2871               	goto	u4591
  5426     0070  2872               	goto	u4590
  5427     0071                     u4591:
  5428     0071  2881               	goto	l3575
  5429     0072                     u4590:
  5430     0072                     l3569:
  5431     0072  0A39               	incf	___flmul@aexp,w
  5432     0073  1D03               	btfss	3,2
  5433     0074  2876               	goto	u4601
  5434     0075  2877               	goto	u4600
  5435     0076                     u4601:
  5436     0076  287F               	goto	l3573
  5437     0077                     u4600:
  5438     0077                     l3571:
  5439     0077  3000               	movlw	0
  5440     0078  00B2               	movwf	___flmul@a+3
  5441     0079  3000               	movlw	0
  5442     007A  00B1               	movwf	___flmul@a+2
  5443     007B  3000               	movlw	0
  5444     007C  00B0               	movwf	___flmul@a+1
  5445     007D  3000               	movlw	0
  5446     007E  00AF               	movwf	___flmul@a
  5447     007F                     l3573:
  5448     007F  17B1               	bsf	___flmul@a+2,7
  5449     0080  2889               	goto	l3577
  5450     0081                     l3575:
  5451     0081  3000               	movlw	0
  5452     0082  00B2               	movwf	___flmul@a+3
  5453     0083  3000               	movlw	0
  5454     0084  00B1               	movwf	___flmul@a+2
  5455     0085  3000               	movlw	0
  5456     0086  00B0               	movwf	___flmul@a+1
  5457     0087  3000               	movlw	0
  5458     0088  00AF               	movwf	___flmul@a
  5459     0089                     l3577:
  5460     0089  0839               	movf	___flmul@aexp,w
  5461     008A  1903               	btfsc	3,2
  5462     008B  288D               	goto	u4611
  5463     008C  288E               	goto	u4610
  5464     008D                     u4611:
  5465     008D  2893               	goto	l3581
  5466     008E                     u4610:
  5467     008E                     l3579:
  5468     008E  083E               	movf	___flmul@bexp,w
  5469     008F  1D03               	btfss	3,2
  5470     0090  2892               	goto	u4621
  5471     0091  2893               	goto	u4620
  5472     0092                     u4621:
  5473     0092  289C               	goto	l3585
  5474     0093                     u4620:
  5475     0093                     l3581:
  5476     0093  3000               	movlw	0
  5477     0094  00AE               	movwf	?___flmul+3
  5478     0095  3000               	movlw	0
  5479     0096  00AD               	movwf	?___flmul+2
  5480     0097  3000               	movlw	0
  5481     0098  00AC               	movwf	?___flmul+1
  5482     0099  3000               	movlw	0
  5483     009A  00AB               	movwf	?___flmul
  5484     009B  2B79               	goto	l799
  5485     009C                     l3585:
  5486     009C  082B               	movf	___flmul@b,w
  5487     009D  00F2               	movwf	__Umul8_16@multiplicand
  5488     009E  0831               	movf	___flmul@a+2,w
  5489     009F  160A  118A  2273  120A  118A  	fcall	__Umul8_16
  5490     00A4  0873               	movf	?__Umul8_16+1,w
  5491     00A5  1283               	bcf	3,5	;RP0=0, select bank0
  5492     00A6  1303               	bcf	3,6	;RP1=0, select bank0
  5493     00A7  00C4               	movwf	___flmul@temp+1
  5494     00A8  0872               	movf	?__Umul8_16,w
  5495     00A9  00C3               	movwf	___flmul@temp
  5496     00AA                     l3587:
  5497     00AA  0843               	movf	___flmul@temp,w
  5498     00AB  00B3               	movwf	??___flmul
  5499     00AC  01B4               	clrf	??___flmul+1
  5500     00AD  01B5               	clrf	??___flmul+2
  5501     00AE  01B6               	clrf	??___flmul+3
  5502     00AF  0836               	movf	??___flmul+3,w
  5503     00B0  00BD               	movwf	___flmul@grs+3
  5504     00B1  0835               	movf	??___flmul+2,w
  5505     00B2  00BC               	movwf	___flmul@grs+2
  5506     00B3  0834               	movf	??___flmul+1,w
  5507     00B4  00BB               	movwf	___flmul@grs+1
  5508     00B5  0833               	movf	??___flmul,w
  5509     00B6  00BA               	movwf	___flmul@grs
  5510     00B7                     l3589:
  5511     00B7  0844               	movf	___flmul@temp+1,w
  5512     00B8  00B3               	movwf	??___flmul
  5513     00B9  01B4               	clrf	??___flmul+1
  5514     00BA  01B5               	clrf	??___flmul+2
  5515     00BB  01B6               	clrf	??___flmul+3
  5516     00BC  0836               	movf	??___flmul+3,w
  5517     00BD  00C2               	movwf	___flmul@prod+3
  5518     00BE  0835               	movf	??___flmul+2,w
  5519     00BF  00C1               	movwf	___flmul@prod+2
  5520     00C0  0834               	movf	??___flmul+1,w
  5521     00C1  00C0               	movwf	___flmul@prod+1
  5522     00C2  0833               	movf	??___flmul,w
  5523     00C3  00BF               	movwf	___flmul@prod
  5524     00C4  082C               	movf	___flmul@b+1,w
  5525     00C5  00F2               	movwf	__Umul8_16@multiplicand
  5526     00C6  0830               	movf	___flmul@a+1,w
  5527     00C7  160A  118A  2273  120A  118A  	fcall	__Umul8_16
  5528     00CC  0873               	movf	?__Umul8_16+1,w
  5529     00CD  1283               	bcf	3,5	;RP0=0, select bank0
  5530     00CE  1303               	bcf	3,6	;RP1=0, select bank0
  5531     00CF  00C4               	movwf	___flmul@temp+1
  5532     00D0  0872               	movf	?__Umul8_16,w
  5533     00D1  00C3               	movwf	___flmul@temp
  5534     00D2                     l3591:
  5535     00D2  0843               	movf	___flmul@temp,w
  5536     00D3  00B3               	movwf	??___flmul
  5537     00D4  01B4               	clrf	??___flmul+1
  5538     00D5  01B5               	clrf	??___flmul+2
  5539     00D6  01B6               	clrf	??___flmul+3
  5540     00D7  0833               	movf	??___flmul,w
  5541     00D8  07BA               	addwf	___flmul@grs,f
  5542     00D9  0834               	movf	??___flmul+1,w
  5543     00DA  1103               	clrz
  5544     00DB  1803               	skipnc
  5545     00DC  3E01               	addlw	1
  5546     00DD  1903               	skipnz
  5547     00DE  28E0               	goto	u4631
  5548     00DF  07BB               	addwf	___flmul@grs+1,f
  5549     00E0                     u4631:
  5550     00E0  0835               	movf	??___flmul+2,w
  5551     00E1  1103               	clrz
  5552     00E2  1803               	skipnc
  5553     00E3  3E01               	addlw	1
  5554     00E4  1903               	skipnz
  5555     00E5  28E7               	goto	u4632
  5556     00E6  07BC               	addwf	___flmul@grs+2,f
  5557     00E7                     u4632:
  5558     00E7  0836               	movf	??___flmul+3,w
  5559     00E8  1103               	clrz
  5560     00E9  1803               	skipnc
  5561     00EA  3E01               	addlw	1
  5562     00EB  1903               	skipnz
  5563     00EC  28EE               	goto	u4633
  5564     00ED  07BD               	addwf	___flmul@grs+3,f
  5565     00EE                     u4633:
  5566     00EE                     l3593:
  5567     00EE  0844               	movf	___flmul@temp+1,w
  5568     00EF  00B3               	movwf	??___flmul
  5569     00F0  01B4               	clrf	??___flmul+1
  5570     00F1  01B5               	clrf	??___flmul+2
  5571     00F2  01B6               	clrf	??___flmul+3
  5572     00F3  0833               	movf	??___flmul,w
  5573     00F4  07BF               	addwf	___flmul@prod,f
  5574     00F5  0834               	movf	??___flmul+1,w
  5575     00F6  1103               	clrz
  5576     00F7  1803               	skipnc
  5577     00F8  3E01               	addlw	1
  5578     00F9  1903               	skipnz
  5579     00FA  28FC               	goto	u4641
  5580     00FB  07C0               	addwf	___flmul@prod+1,f
  5581     00FC                     u4641:
  5582     00FC  0835               	movf	??___flmul+2,w
  5583     00FD  1103               	clrz
  5584     00FE  1803               	skipnc
  5585     00FF  3E01               	addlw	1
  5586     0100  1903               	skipnz
  5587     0101  2903               	goto	u4642
  5588     0102  07C1               	addwf	___flmul@prod+2,f
  5589     0103                     u4642:
  5590     0103  0836               	movf	??___flmul+3,w
  5591     0104  1103               	clrz
  5592     0105  1803               	skipnc
  5593     0106  3E01               	addlw	1
  5594     0107  1903               	skipnz
  5595     0108  290A               	goto	u4643
  5596     0109  07C2               	addwf	___flmul@prod+3,f
  5597     010A                     u4643:
  5598     010A  082D               	movf	___flmul@b+2,w
  5599     010B  00F2               	movwf	__Umul8_16@multiplicand
  5600     010C  082F               	movf	___flmul@a,w
  5601     010D  160A  118A  2273  120A  118A  	fcall	__Umul8_16
  5602     0112  0873               	movf	?__Umul8_16+1,w
  5603     0113  1283               	bcf	3,5	;RP0=0, select bank0
  5604     0114  1303               	bcf	3,6	;RP1=0, select bank0
  5605     0115  00C4               	movwf	___flmul@temp+1
  5606     0116  0872               	movf	?__Umul8_16,w
  5607     0117  00C3               	movwf	___flmul@temp
  5608     0118                     l3595:
  5609     0118  0843               	movf	___flmul@temp,w
  5610     0119  00B3               	movwf	??___flmul
  5611     011A  01B4               	clrf	??___flmul+1
  5612     011B  01B5               	clrf	??___flmul+2
  5613     011C  01B6               	clrf	??___flmul+3
  5614     011D  0833               	movf	??___flmul,w
  5615     011E  07BA               	addwf	___flmul@grs,f
  5616     011F  0834               	movf	??___flmul+1,w
  5617     0120  1103               	clrz
  5618     0121  1803               	skipnc
  5619     0122  3E01               	addlw	1
  5620     0123  1903               	skipnz
  5621     0124  2926               	goto	u4651
  5622     0125  07BB               	addwf	___flmul@grs+1,f
  5623     0126                     u4651:
  5624     0126  0835               	movf	??___flmul+2,w
  5625     0127  1103               	clrz
  5626     0128  1803               	skipnc
  5627     0129  3E01               	addlw	1
  5628     012A  1903               	skipnz
  5629     012B  292D               	goto	u4652
  5630     012C  07BC               	addwf	___flmul@grs+2,f
  5631     012D                     u4652:
  5632     012D  0836               	movf	??___flmul+3,w
  5633     012E  1103               	clrz
  5634     012F  1803               	skipnc
  5635     0130  3E01               	addlw	1
  5636     0131  1903               	skipnz
  5637     0132  2934               	goto	u4653
  5638     0133  07BD               	addwf	___flmul@grs+3,f
  5639     0134                     u4653:
  5640     0134                     l3597:
  5641     0134  0844               	movf	___flmul@temp+1,w
  5642     0135  00B3               	movwf	??___flmul
  5643     0136  01B4               	clrf	??___flmul+1
  5644     0137  01B5               	clrf	??___flmul+2
  5645     0138  01B6               	clrf	??___flmul+3
  5646     0139  0833               	movf	??___flmul,w
  5647     013A  07BF               	addwf	___flmul@prod,f
  5648     013B  0834               	movf	??___flmul+1,w
  5649     013C  1103               	clrz
  5650     013D  1803               	skipnc
  5651     013E  3E01               	addlw	1
  5652     013F  1903               	skipnz
  5653     0140  2942               	goto	u4661
  5654     0141  07C0               	addwf	___flmul@prod+1,f
  5655     0142                     u4661:
  5656     0142  0835               	movf	??___flmul+2,w
  5657     0143  1103               	clrz
  5658     0144  1803               	skipnc
  5659     0145  3E01               	addlw	1
  5660     0146  1903               	skipnz
  5661     0147  2949               	goto	u4662
  5662     0148  07C1               	addwf	___flmul@prod+2,f
  5663     0149                     u4662:
  5664     0149  0836               	movf	??___flmul+3,w
  5665     014A  1103               	clrz
  5666     014B  1803               	skipnc
  5667     014C  3E01               	addlw	1
  5668     014D  1903               	skipnz
  5669     014E  2950               	goto	u4663
  5670     014F  07C2               	addwf	___flmul@prod+3,f
  5671     0150                     u4663:
  5672     0150                     l3599:
  5673     0150  3008               	movlw	8
  5674     0151  00B3               	movwf	??___flmul
  5675     0152                     u4675:
  5676     0152  1003               	clrc
  5677     0153  0DBA               	rlf	___flmul@grs,f
  5678     0154  0DBB               	rlf	___flmul@grs+1,f
  5679     0155  0DBC               	rlf	___flmul@grs+2,f
  5680     0156  0DBD               	rlf	___flmul@grs+3,f
  5681     0157  0BB3               	decfsz	??___flmul,f
  5682     0158  2952               	goto	u4675
  5683     0159                     l3601:
  5684     0159  082C               	movf	___flmul@b+1,w
  5685     015A  00F2               	movwf	__Umul8_16@multiplicand
  5686     015B  082F               	movf	___flmul@a,w
  5687     015C  160A  118A  2273  120A  118A  	fcall	__Umul8_16
  5688     0161  0873               	movf	?__Umul8_16+1,w
  5689     0162  1283               	bcf	3,5	;RP0=0, select bank0
  5690     0163  1303               	bcf	3,6	;RP1=0, select bank0
  5691     0164  00C4               	movwf	___flmul@temp+1
  5692     0165  0872               	movf	?__Umul8_16,w
  5693     0166  00C3               	movwf	___flmul@temp
  5694     0167                     l3603:
  5695     0167  0843               	movf	___flmul@temp,w
  5696     0168  00B3               	movwf	??___flmul
  5697     0169  0844               	movf	___flmul@temp+1,w
  5698     016A  00B4               	movwf	??___flmul+1
  5699     016B  01B5               	clrf	??___flmul+2
  5700     016C  01B6               	clrf	??___flmul+3
  5701     016D  0833               	movf	??___flmul,w
  5702     016E  07BA               	addwf	___flmul@grs,f
  5703     016F  0834               	movf	??___flmul+1,w
  5704     0170  1103               	clrz
  5705     0171  1803               	skipnc
  5706     0172  3E01               	addlw	1
  5707     0173  1903               	skipnz
  5708     0174  2976               	goto	u4681
  5709     0175  07BB               	addwf	___flmul@grs+1,f
  5710     0176                     u4681:
  5711     0176  0835               	movf	??___flmul+2,w
  5712     0177  1103               	clrz
  5713     0178  1803               	skipnc
  5714     0179  3E01               	addlw	1
  5715     017A  1903               	skipnz
  5716     017B  297D               	goto	u4682
  5717     017C  07BC               	addwf	___flmul@grs+2,f
  5718     017D                     u4682:
  5719     017D  0836               	movf	??___flmul+3,w
  5720     017E  1103               	clrz
  5721     017F  1803               	skipnc
  5722     0180  3E01               	addlw	1
  5723     0181  1903               	skipnz
  5724     0182  2984               	goto	u4683
  5725     0183  07BD               	addwf	___flmul@grs+3,f
  5726     0184                     u4683:
  5727     0184                     l3605:
  5728     0184  082B               	movf	___flmul@b,w
  5729     0185  00F2               	movwf	__Umul8_16@multiplicand
  5730     0186  0830               	movf	___flmul@a+1,w
  5731     0187  160A  118A  2273  120A  118A  	fcall	__Umul8_16
  5732     018C  0873               	movf	?__Umul8_16+1,w
  5733     018D  1283               	bcf	3,5	;RP0=0, select bank0
  5734     018E  1303               	bcf	3,6	;RP1=0, select bank0
  5735     018F  00C4               	movwf	___flmul@temp+1
  5736     0190  0872               	movf	?__Umul8_16,w
  5737     0191  00C3               	movwf	___flmul@temp
  5738     0192                     l3607:
  5739     0192  0843               	movf	___flmul@temp,w
  5740     0193  00B3               	movwf	??___flmul
  5741     0194  0844               	movf	___flmul@temp+1,w
  5742     0195  00B4               	movwf	??___flmul+1
  5743     0196  01B5               	clrf	??___flmul+2
  5744     0197  01B6               	clrf	??___flmul+3
  5745     0198  0833               	movf	??___flmul,w
  5746     0199  07BA               	addwf	___flmul@grs,f
  5747     019A  0834               	movf	??___flmul+1,w
  5748     019B  1103               	clrz
  5749     019C  1803               	skipnc
  5750     019D  3E01               	addlw	1
  5751     019E  1903               	skipnz
  5752     019F  29A1               	goto	u4691
  5753     01A0  07BB               	addwf	___flmul@grs+1,f
  5754     01A1                     u4691:
  5755     01A1  0835               	movf	??___flmul+2,w
  5756     01A2  1103               	clrz
  5757     01A3  1803               	skipnc
  5758     01A4  3E01               	addlw	1
  5759     01A5  1903               	skipnz
  5760     01A6  29A8               	goto	u4692
  5761     01A7  07BC               	addwf	___flmul@grs+2,f
  5762     01A8                     u4692:
  5763     01A8  0836               	movf	??___flmul+3,w
  5764     01A9  1103               	clrz
  5765     01AA  1803               	skipnc
  5766     01AB  3E01               	addlw	1
  5767     01AC  1903               	skipnz
  5768     01AD  29AF               	goto	u4693
  5769     01AE  07BD               	addwf	___flmul@grs+3,f
  5770     01AF                     u4693:
  5771     01AF                     l3609:
  5772     01AF  3008               	movlw	8
  5773     01B0  00B3               	movwf	??___flmul
  5774     01B1                     u4705:
  5775     01B1  1003               	clrc
  5776     01B2  0DBA               	rlf	___flmul@grs,f
  5777     01B3  0DBB               	rlf	___flmul@grs+1,f
  5778     01B4  0DBC               	rlf	___flmul@grs+2,f
  5779     01B5  0DBD               	rlf	___flmul@grs+3,f
  5780     01B6  0BB3               	decfsz	??___flmul,f
  5781     01B7  29B1               	goto	u4705
  5782     01B8  082B               	movf	___flmul@b,w
  5783     01B9  00F2               	movwf	__Umul8_16@multiplicand
  5784     01BA  082F               	movf	___flmul@a,w
  5785     01BB  160A  118A  2273  120A  118A  	fcall	__Umul8_16
  5786     01C0  0873               	movf	?__Umul8_16+1,w
  5787     01C1  1283               	bcf	3,5	;RP0=0, select bank0
  5788     01C2  1303               	bcf	3,6	;RP1=0, select bank0
  5789     01C3  00C4               	movwf	___flmul@temp+1
  5790     01C4  0872               	movf	?__Umul8_16,w
  5791     01C5  00C3               	movwf	___flmul@temp
  5792     01C6                     l3611:
  5793     01C6  0843               	movf	___flmul@temp,w
  5794     01C7  00B3               	movwf	??___flmul
  5795     01C8  0844               	movf	___flmul@temp+1,w
  5796     01C9  00B4               	movwf	??___flmul+1
  5797     01CA  01B5               	clrf	??___flmul+2
  5798     01CB  01B6               	clrf	??___flmul+3
  5799     01CC  0833               	movf	??___flmul,w
  5800     01CD  07BA               	addwf	___flmul@grs,f
  5801     01CE  0834               	movf	??___flmul+1,w
  5802     01CF  1103               	clrz
  5803     01D0  1803               	skipnc
  5804     01D1  3E01               	addlw	1
  5805     01D2  1903               	skipnz
  5806     01D3  29D5               	goto	u4711
  5807     01D4  07BB               	addwf	___flmul@grs+1,f
  5808     01D5                     u4711:
  5809     01D5  0835               	movf	??___flmul+2,w
  5810     01D6  1103               	clrz
  5811     01D7  1803               	skipnc
  5812     01D8  3E01               	addlw	1
  5813     01D9  1903               	skipnz
  5814     01DA  29DC               	goto	u4712
  5815     01DB  07BC               	addwf	___flmul@grs+2,f
  5816     01DC                     u4712:
  5817     01DC  0836               	movf	??___flmul+3,w
  5818     01DD  1103               	clrz
  5819     01DE  1803               	skipnc
  5820     01DF  3E01               	addlw	1
  5821     01E0  1903               	skipnz
  5822     01E1  29E3               	goto	u4713
  5823     01E2  07BD               	addwf	___flmul@grs+3,f
  5824     01E3                     u4713:
  5825     01E3                     l3613:
  5826     01E3  082C               	movf	___flmul@b+1,w
  5827     01E4  00F2               	movwf	__Umul8_16@multiplicand
  5828     01E5  0831               	movf	___flmul@a+2,w
  5829     01E6  160A  118A  2273  120A  118A  	fcall	__Umul8_16
  5830     01EB  0873               	movf	?__Umul8_16+1,w
  5831     01EC  1283               	bcf	3,5	;RP0=0, select bank0
  5832     01ED  1303               	bcf	3,6	;RP1=0, select bank0
  5833     01EE  00C4               	movwf	___flmul@temp+1
  5834     01EF  0872               	movf	?__Umul8_16,w
  5835     01F0  00C3               	movwf	___flmul@temp
  5836     01F1  0843               	movf	___flmul@temp,w
  5837     01F2  00B3               	movwf	??___flmul
  5838     01F3  0844               	movf	___flmul@temp+1,w
  5839     01F4  00B4               	movwf	??___flmul+1
  5840     01F5  01B5               	clrf	??___flmul+2
  5841     01F6  01B6               	clrf	??___flmul+3
  5842     01F7  0833               	movf	??___flmul,w
  5843     01F8  07BF               	addwf	___flmul@prod,f
  5844     01F9  0834               	movf	??___flmul+1,w
  5845     01FA  1103               	clrz
  5846     01FB  1803               	skipnc
  5847     01FC  3E01               	addlw	1
  5848     01FD  1903               	skipnz
  5849     01FE  2A00               	goto	u4721
  5850     01FF  07C0               	addwf	___flmul@prod+1,f
  5851     0200                     u4721:
  5852     0200  0835               	movf	??___flmul+2,w
  5853     0201  1103               	clrz
  5854     0202  1803               	skipnc
  5855     0203  3E01               	addlw	1
  5856     0204  1903               	skipnz
  5857     0205  2A07               	goto	u4722
  5858     0206  07C1               	addwf	___flmul@prod+2,f
  5859     0207                     u4722:
  5860     0207  0836               	movf	??___flmul+3,w
  5861     0208  1103               	clrz
  5862     0209  1803               	skipnc
  5863     020A  3E01               	addlw	1
  5864     020B  1903               	skipnz
  5865     020C  2A0E               	goto	u4723
  5866     020D  07C2               	addwf	___flmul@prod+3,f
  5867     020E                     u4723:
  5868     020E                     l3615:
  5869     020E  082D               	movf	___flmul@b+2,w
  5870     020F  00F2               	movwf	__Umul8_16@multiplicand
  5871     0210  0830               	movf	___flmul@a+1,w
  5872     0211  160A  118A  2273  120A  118A  	fcall	__Umul8_16
  5873     0216  0873               	movf	?__Umul8_16+1,w
  5874     0217  1283               	bcf	3,5	;RP0=0, select bank0
  5875     0218  1303               	bcf	3,6	;RP1=0, select bank0
  5876     0219  00C4               	movwf	___flmul@temp+1
  5877     021A  0872               	movf	?__Umul8_16,w
  5878     021B  00C3               	movwf	___flmul@temp
  5879     021C                     l3617:
  5880     021C  0843               	movf	___flmul@temp,w
  5881     021D  00B3               	movwf	??___flmul
  5882     021E  0844               	movf	___flmul@temp+1,w
  5883     021F  00B4               	movwf	??___flmul+1
  5884     0220  01B5               	clrf	??___flmul+2
  5885     0221  01B6               	clrf	??___flmul+3
  5886     0222  0833               	movf	??___flmul,w
  5887     0223  07BF               	addwf	___flmul@prod,f
  5888     0224  0834               	movf	??___flmul+1,w
  5889     0225  1103               	clrz
  5890     0226  1803               	skipnc
  5891     0227  3E01               	addlw	1
  5892     0228  1903               	skipnz
  5893     0229  2A2B               	goto	u4731
  5894     022A  07C0               	addwf	___flmul@prod+1,f
  5895     022B                     u4731:
  5896     022B  0835               	movf	??___flmul+2,w
  5897     022C  1103               	clrz
  5898     022D  1803               	skipnc
  5899     022E  3E01               	addlw	1
  5900     022F  1903               	skipnz
  5901     0230  2A32               	goto	u4732
  5902     0231  07C1               	addwf	___flmul@prod+2,f
  5903     0232                     u4732:
  5904     0232  0836               	movf	??___flmul+3,w
  5905     0233  1103               	clrz
  5906     0234  1803               	skipnc
  5907     0235  3E01               	addlw	1
  5908     0236  1903               	skipnz
  5909     0237  2A39               	goto	u4733
  5910     0238  07C2               	addwf	___flmul@prod+3,f
  5911     0239                     u4733:
  5912     0239  082D               	movf	___flmul@b+2,w
  5913     023A  00F2               	movwf	__Umul8_16@multiplicand
  5914     023B  0831               	movf	___flmul@a+2,w
  5915     023C  160A  118A  2273  120A  118A  	fcall	__Umul8_16
  5916     0241  0873               	movf	?__Umul8_16+1,w
  5917     0242  1283               	bcf	3,5	;RP0=0, select bank0
  5918     0243  1303               	bcf	3,6	;RP1=0, select bank0
  5919     0244  00C4               	movwf	___flmul@temp+1
  5920     0245  0872               	movf	?__Umul8_16,w
  5921     0246  00C3               	movwf	___flmul@temp
  5922     0247                     l3619:
  5923     0247  0843               	movf	___flmul@temp,w
  5924     0248  00B3               	movwf	??___flmul
  5925     0249  0844               	movf	___flmul@temp+1,w
  5926     024A  00B4               	movwf	??___flmul+1
  5927     024B  01B5               	clrf	??___flmul+2
  5928     024C  01B6               	clrf	??___flmul+3
  5929     024D  3008               	movlw	8
  5930     024E                     u4745:
  5931     024E  1003               	clrc
  5932     024F  0DB3               	rlf	??___flmul,f
  5933     0250  0DB4               	rlf	??___flmul+1,f
  5934     0251  0DB5               	rlf	??___flmul+2,f
  5935     0252  0DB6               	rlf	??___flmul+3,f
  5936     0253                     u4740:
  5937     0253  3EFF               	addlw	-1
  5938     0254  1D03               	skipz
  5939     0255  2A4E               	goto	u4745
  5940     0256  0833               	movf	??___flmul,w
  5941     0257  07BF               	addwf	___flmul@prod,f
  5942     0258  0834               	movf	??___flmul+1,w
  5943     0259  1103               	clrz
  5944     025A  1803               	skipnc
  5945     025B  3E01               	addlw	1
  5946     025C  1903               	skipnz
  5947     025D  2A5F               	goto	u4751
  5948     025E  07C0               	addwf	___flmul@prod+1,f
  5949     025F                     u4751:
  5950     025F  0835               	movf	??___flmul+2,w
  5951     0260  1103               	clrz
  5952     0261  1803               	skipnc
  5953     0262  3E01               	addlw	1
  5954     0263  1903               	skipnz
  5955     0264  2A66               	goto	u4752
  5956     0265  07C1               	addwf	___flmul@prod+2,f
  5957     0266                     u4752:
  5958     0266  0836               	movf	??___flmul+3,w
  5959     0267  1103               	clrz
  5960     0268  1803               	skipnc
  5961     0269  3E01               	addlw	1
  5962     026A  1903               	skipnz
  5963     026B  2A6D               	goto	u4753
  5964     026C  07C2               	addwf	___flmul@prod+3,f
  5965     026D                     u4753:
  5966     026D                     l3621:
  5967     026D  083A               	movf	___flmul@grs,w
  5968     026E  00B3               	movwf	??___flmul
  5969     026F  083B               	movf	___flmul@grs+1,w
  5970     0270  00B4               	movwf	??___flmul+1
  5971     0271  083C               	movf	___flmul@grs+2,w
  5972     0272  00B5               	movwf	??___flmul+2
  5973     0273  083D               	movf	___flmul@grs+3,w
  5974     0274  00B6               	movwf	??___flmul+3
  5975     0275  3018               	movlw	24
  5976     0276                     u4765:
  5977     0276  1003               	clrc
  5978     0277  0CB6               	rrf	??___flmul+3,f
  5979     0278  0CB5               	rrf	??___flmul+2,f
  5980     0279  0CB4               	rrf	??___flmul+1,f
  5981     027A  0CB3               	rrf	??___flmul,f
  5982     027B                     u4760:
  5983     027B  3EFF               	addlw	-1
  5984     027C  1D03               	skipz
  5985     027D  2A76               	goto	u4765
  5986     027E  0833               	movf	??___flmul,w
  5987     027F  07BF               	addwf	___flmul@prod,f
  5988     0280  0834               	movf	??___flmul+1,w
  5989     0281  1103               	clrz
  5990     0282  1803               	skipnc
  5991     0283  3E01               	addlw	1
  5992     0284  1903               	skipnz
  5993     0285  2A87               	goto	u4771
  5994     0286  07C0               	addwf	___flmul@prod+1,f
  5995     0287                     u4771:
  5996     0287  0835               	movf	??___flmul+2,w
  5997     0288  1103               	clrz
  5998     0289  1803               	skipnc
  5999     028A  3E01               	addlw	1
  6000     028B  1903               	skipnz
  6001     028C  2A8E               	goto	u4772
  6002     028D  07C1               	addwf	___flmul@prod+2,f
  6003     028E                     u4772:
  6004     028E  0836               	movf	??___flmul+3,w
  6005     028F  1103               	clrz
  6006     0290  1803               	skipnc
  6007     0291  3E01               	addlw	1
  6008     0292  1903               	skipnz
  6009     0293  2A95               	goto	u4773
  6010     0294  07C2               	addwf	___flmul@prod+3,f
  6011     0295                     u4773:
  6012     0295                     l3623:
  6013     0295  3008               	movlw	8
  6014     0296  00B3               	movwf	??___flmul
  6015     0297                     u4785:
  6016     0297  1003               	clrc
  6017     0298  0DBA               	rlf	___flmul@grs,f
  6018     0299  0DBB               	rlf	___flmul@grs+1,f
  6019     029A  0DBC               	rlf	___flmul@grs+2,f
  6020     029B  0DBD               	rlf	___flmul@grs+3,f
  6021     029C  0BB3               	decfsz	??___flmul,f
  6022     029D  2A97               	goto	u4785
  6023     029E                     l3625:
  6024     029E  083E               	movf	___flmul@bexp,w
  6025     029F  0739               	addwf	___flmul@aexp,w
  6026     02A0  00B3               	movwf	??___flmul
  6027     02A1  01B4               	clrf	??___flmul+1
  6028     02A2  0DB4               	rlf	??___flmul+1,f
  6029     02A3  0833               	movf	??___flmul,w
  6030     02A4  3E82               	addlw	130
  6031     02A5  00C3               	movwf	___flmul@temp
  6032     02A6  0834               	movf	??___flmul+1,w
  6033     02A7  1803               	skipnc
  6034     02A8  3E01               	addlw	1
  6035     02A9  3EFF               	addlw	255
  6036     02AA  00C4               	movwf	___flmul@temp+1
  6037     02AB  2AC9               	goto	l3637
  6038     02AC                     l3627:
  6039     02AC  3001               	movlw	1
  6040     02AD  00B3               	movwf	??___flmul
  6041     02AE                     u4795:
  6042     02AE  1003               	clrc
  6043     02AF  0DBF               	rlf	___flmul@prod,f
  6044     02B0  0DC0               	rlf	___flmul@prod+1,f
  6045     02B1  0DC1               	rlf	___flmul@prod+2,f
  6046     02B2  0DC2               	rlf	___flmul@prod+3,f
  6047     02B3  0BB3               	decfsz	??___flmul,f
  6048     02B4  2AAE               	goto	u4795
  6049     02B5                     l3629:
  6050     02B5  1FBD               	btfss	___flmul@grs+3,7
  6051     02B6  2AB8               	goto	u4801
  6052     02B7  2AB9               	goto	u4800
  6053     02B8                     u4801:
  6054     02B8  2ABA               	goto	l3633
  6055     02B9                     u4800:
  6056     02B9                     l3631:
  6057     02B9  143F               	bsf	___flmul@prod,0
  6058     02BA                     l3633:
  6059     02BA  3001               	movlw	1
  6060     02BB  00B3               	movwf	??___flmul
  6061     02BC                     u4815:
  6062     02BC  1003               	clrc
  6063     02BD  0DBA               	rlf	___flmul@grs,f
  6064     02BE  0DBB               	rlf	___flmul@grs+1,f
  6065     02BF  0DBC               	rlf	___flmul@grs+2,f
  6066     02C0  0DBD               	rlf	___flmul@grs+3,f
  6067     02C1  0BB3               	decfsz	??___flmul,f
  6068     02C2  2ABC               	goto	u4815
  6069     02C3                     l3635:
  6070     02C3  30FF               	movlw	255
  6071     02C4  07C3               	addwf	___flmul@temp,f
  6072     02C5  1803               	skipnc
  6073     02C6  0AC4               	incf	___flmul@temp+1,f
  6074     02C7  30FF               	movlw	255
  6075     02C8  07C4               	addwf	___flmul@temp+1,f
  6076     02C9                     l3637:
  6077     02C9  1FC1               	btfss	___flmul@prod+2,7
  6078     02CA  2ACC               	goto	u4821
  6079     02CB  2ACD               	goto	u4820
  6080     02CC                     u4821:
  6081     02CC  2AAC               	goto	l3627
  6082     02CD                     u4820:
  6083     02CD                     l3639:
  6084     02CD  01B9               	clrf	___flmul@aexp
  6085     02CE                     l3641:
  6086     02CE  1FBD               	btfss	___flmul@grs+3,7
  6087     02CF  2AD1               	goto	u4831
  6088     02D0  2AD2               	goto	u4830
  6089     02D1                     u4831:
  6090     02D1  2AEE               	goto	l3649
  6091     02D2                     u4830:
  6092     02D2                     l3643:
  6093     02D2  30FF               	movlw	255
  6094     02D3  053A               	andwf	___flmul@grs,w
  6095     02D4  00B3               	movwf	??___flmul
  6096     02D5  30FF               	movlw	255
  6097     02D6  053B               	andwf	___flmul@grs+1,w
  6098     02D7  00B4               	movwf	??___flmul+1
  6099     02D8  30FF               	movlw	255
  6100     02D9  053C               	andwf	___flmul@grs+2,w
  6101     02DA  00B5               	movwf	??___flmul+2
  6102     02DB  307F               	movlw	127
  6103     02DC  053D               	andwf	___flmul@grs+3,w
  6104     02DD  00B6               	movwf	??___flmul+3
  6105     02DE  0836               	movf	??___flmul+3,w
  6106     02DF  0435               	iorwf	??___flmul+2,w
  6107     02E0  0434               	iorwf	??___flmul+1,w
  6108     02E1  0433               	iorwf	??___flmul,w
  6109     02E2  1903               	skipnz
  6110     02E3  2AE5               	goto	u4841
  6111     02E4  2AE6               	goto	u4840
  6112     02E5                     u4841:
  6113     02E5  2AE9               	goto	l805
  6114     02E6                     u4840:
  6115     02E6                     l3645:
  6116     02E6  01B9               	clrf	___flmul@aexp
  6117     02E7  0AB9               	incf	___flmul@aexp,f
  6118     02E8  2AEE               	goto	l3649
  6119     02E9                     l805:
  6120     02E9  1C3F               	btfss	___flmul@prod,0
  6121     02EA  2AEC               	goto	u4851
  6122     02EB  2AED               	goto	u4850
  6123     02EC                     u4851:
  6124     02EC  2AEE               	goto	l3649
  6125     02ED                     u4850:
  6126     02ED  2AE6               	goto	l3645
  6127     02EE                     l3649:
  6128     02EE  0839               	movf	___flmul@aexp,w
  6129     02EF  1903               	btfsc	3,2
  6130     02F0  2AF2               	goto	u4861
  6131     02F1  2AF3               	goto	u4860
  6132     02F2                     u4861:
  6133     02F2  2B24               	goto	l3659
  6134     02F3                     u4860:
  6135     02F3                     l3651:
  6136     02F3  3001               	movlw	1
  6137     02F4  07BF               	addwf	___flmul@prod,f
  6138     02F5  3000               	movlw	0
  6139     02F6  1803               	skipnc
  6140     02F7  3001               	movlw	1
  6141     02F8  07C0               	addwf	___flmul@prod+1,f
  6142     02F9  3000               	movlw	0
  6143     02FA  1803               	skipnc
  6144     02FB  3001               	movlw	1
  6145     02FC  07C1               	addwf	___flmul@prod+2,f
  6146     02FD  3000               	movlw	0
  6147     02FE  1803               	skipnc
  6148     02FF  3001               	movlw	1
  6149     0300  07C2               	addwf	___flmul@prod+3,f
  6150     0301                     l3653:
  6151     0301  1C42               	btfss	___flmul@prod+3,0
  6152     0302  2B04               	goto	u4871
  6153     0303  2B05               	goto	u4870
  6154     0304                     u4871:
  6155     0304  2B24               	goto	l3659
  6156     0305                     u4870:
  6157     0305                     l3655:
  6158     0305  083F               	movf	___flmul@prod,w
  6159     0306  00B3               	movwf	??___flmul
  6160     0307  0840               	movf	___flmul@prod+1,w
  6161     0308  00B4               	movwf	??___flmul+1
  6162     0309  0841               	movf	___flmul@prod+2,w
  6163     030A  00B5               	movwf	??___flmul+2
  6164     030B  0842               	movf	___flmul@prod+3,w
  6165     030C  00B6               	movwf	??___flmul+3
  6166     030D  3001               	movlw	1
  6167     030E  00B7               	movwf	??___flmul+4
  6168     030F                     u4885:
  6169     030F  0D36               	rlf	??___flmul+3,w
  6170     0310  0CB6               	rrf	??___flmul+3,f
  6171     0311  0CB5               	rrf	??___flmul+2,f
  6172     0312  0CB4               	rrf	??___flmul+1,f
  6173     0313  0CB3               	rrf	??___flmul,f
  6174     0314                     u4880:
  6175     0314  0BB7               	decfsz	??___flmul+4,f
  6176     0315  2B0F               	goto	u4885
  6177     0316  0836               	movf	??___flmul+3,w
  6178     0317  00C2               	movwf	___flmul@prod+3
  6179     0318  0835               	movf	??___flmul+2,w
  6180     0319  00C1               	movwf	___flmul@prod+2
  6181     031A  0834               	movf	??___flmul+1,w
  6182     031B  00C0               	movwf	___flmul@prod+1
  6183     031C  0833               	movf	??___flmul,w
  6184     031D  00BF               	movwf	___flmul@prod
  6185     031E                     l3657:
  6186     031E  3001               	movlw	1
  6187     031F  07C3               	addwf	___flmul@temp,f
  6188     0320  1803               	skipnc
  6189     0321  0AC4               	incf	___flmul@temp+1,f
  6190     0322  3000               	movlw	0
  6191     0323  07C4               	addwf	___flmul@temp+1,f
  6192     0324                     l3659:
  6193     0324  0844               	movf	___flmul@temp+1,w
  6194     0325  3A80               	xorlw	128
  6195     0326  00FF               	movwf	btemp+1
  6196     0327  3080               	movlw	128
  6197     0328  027F               	subwf	btemp+1,w
  6198     0329  1D03               	skipz
  6199     032A  2B2D               	goto	u4895
  6200     032B  30FF               	movlw	255
  6201     032C  0243               	subwf	___flmul@temp,w
  6202     032D                     u4895:
  6203     032D  1C03               	skipc
  6204     032E  2B30               	goto	u4891
  6205     032F  2B31               	goto	u4890
  6206     0330                     u4891:
  6207     0330  2B3C               	goto	l3663
  6208     0331                     u4890:
  6209     0331                     l3661:
  6210     0331  307F               	movlw	127
  6211     0332  1283               	bcf	3,5	;RP0=0, select bank0
  6212     0333  1303               	bcf	3,6	;RP1=0, select bank0
  6213     0334  00C2               	movwf	___flmul@prod+3
  6214     0335  3080               	movlw	128
  6215     0336  00C1               	movwf	___flmul@prod+2
  6216     0337  3000               	movlw	0
  6217     0338  00C0               	movwf	___flmul@prod+1
  6218     0339  3000               	movlw	0
  6219     033A  00BF               	movwf	___flmul@prod
  6220     033B  2B6D               	goto	l3677
  6221     033C                     l3663:
  6222     033C  1283               	bcf	3,5	;RP0=0, select bank0
  6223     033D  1303               	bcf	3,6	;RP1=0, select bank0
  6224     033E  0844               	movf	___flmul@temp+1,w
  6225     033F  3A80               	xorlw	128
  6226     0340  00FF               	movwf	btemp+1
  6227     0341  3080               	movlw	128
  6228     0342  027F               	subwf	btemp+1,w
  6229     0343  1D03               	skipz
  6230     0344  2B47               	goto	u4905
  6231     0345  3001               	movlw	1
  6232     0346  0243               	subwf	___flmul@temp,w
  6233     0347                     u4905:
  6234     0347  1803               	skipnc
  6235     0348  2B4A               	goto	u4901
  6236     0349  2B4B               	goto	u4900
  6237     034A                     u4901:
  6238     034A  2B57               	goto	l3669
  6239     034B                     u4900:
  6240     034B                     l3665:
  6241     034B  3000               	movlw	0
  6242     034C  1283               	bcf	3,5	;RP0=0, select bank0
  6243     034D  1303               	bcf	3,6	;RP1=0, select bank0
  6244     034E  00C2               	movwf	___flmul@prod+3
  6245     034F  3000               	movlw	0
  6246     0350  00C1               	movwf	___flmul@prod+2
  6247     0351  3000               	movlw	0
  6248     0352  00C0               	movwf	___flmul@prod+1
  6249     0353  3000               	movlw	0
  6250     0354  00BF               	movwf	___flmul@prod
  6251     0355                     l3667:
  6252     0355  01B8               	clrf	___flmul@sign
  6253     0356  2B6D               	goto	l3677
  6254     0357                     l3669:
  6255     0357  1283               	bcf	3,5	;RP0=0, select bank0
  6256     0358  1303               	bcf	3,6	;RP1=0, select bank0
  6257     0359  0843               	movf	___flmul@temp,w
  6258     035A  00BE               	movwf	___flmul@bexp
  6259     035B  30FF               	movlw	255
  6260     035C  05BF               	andwf	___flmul@prod,f
  6261     035D  30FF               	movlw	255
  6262     035E  05C0               	andwf	___flmul@prod+1,f
  6263     035F  307F               	movlw	127
  6264     0360  05C1               	andwf	___flmul@prod+2,f
  6265     0361  3000               	movlw	0
  6266     0362  05C2               	andwf	___flmul@prod+3,f
  6267     0363                     l3671:
  6268     0363  1C3E               	btfss	___flmul@bexp,0
  6269     0364  2B66               	goto	u4911
  6270     0365  2B67               	goto	u4910
  6271     0366                     u4911:
  6272     0366  2B68               	goto	l3675
  6273     0367                     u4910:
  6274     0367                     l3673:
  6275     0367  17C1               	bsf	___flmul@prod+2,7
  6276     0368                     l3675:
  6277     0368  083E               	movf	___flmul@bexp,w
  6278     0369  00B3               	movwf	??___flmul
  6279     036A  1003               	clrc
  6280     036B  0C33               	rrf	??___flmul,w
  6281     036C  00C2               	movwf	___flmul@prod+3
  6282     036D                     l3677:
  6283     036D  0838               	movf	___flmul@sign,w
  6284     036E  00FF               	movwf	btemp+1
  6285     036F  087F               	movf	btemp+1,w
  6286     0370  04C2               	iorwf	___flmul@prod+3,f
  6287     0371                     l3679:
  6288     0371  0842               	movf	___flmul@prod+3,w
  6289     0372  00AE               	movwf	?___flmul+3
  6290     0373  0841               	movf	___flmul@prod+2,w
  6291     0374  00AD               	movwf	?___flmul+2
  6292     0375  0840               	movf	___flmul@prod+1,w
  6293     0376  00AC               	movwf	?___flmul+1
  6294     0377  083F               	movf	___flmul@prod,w
  6295     0378  00AB               	movwf	?___flmul
  6296     0379                     l799:
  6297     0379  0008               	return
  6298     037A                     __end_of___flmul:
  6299                           
  6300                           	psect	text18
  6301     1273                     __ptext18:	
  6302 ;; *************** function __Umul8_16 *****************
  6303 ;; Defined at:
  6304 ;;		line 4 in file "C:\Program Files\Microchip\xc8\v2.41\pic\sources\c90\common\Umul8_16.c"
  6305 ;; Parameters:    Size  Location     Type
  6306 ;;  multiplier      1    wreg     unsigned char 
  6307 ;;  multiplicand    1    2[COMMON] unsigned char 
  6308 ;; Auto vars:     Size  Location     Type
  6309 ;;  multiplier      1    4[BANK0 ] unsigned char 
  6310 ;;  word_mpld       2    2[BANK0 ] unsigned int 
  6311 ;;  product         2    0[BANK0 ] unsigned int 
  6312 ;; Return value:  Size  Location     Type
  6313 ;;                  2    2[COMMON] unsigned int 
  6314 ;; Registers used:
  6315 ;;		wreg, status,2, status,0
  6316 ;; Tracked objects:
  6317 ;;		On entry : 0/0
  6318 ;;		On exit  : 0/0
  6319 ;;		Unchanged: 0/0
  6320 ;; Data sizes:     COMMON   BANK0   BANK1   BANK3   BANK2
  6321 ;;      Params:         2       0       0       0       0
  6322 ;;      Locals:         0       5       0       0       0
  6323 ;;      Temps:          2       0       0       0       0
  6324 ;;      Totals:         4       5       0       0       0
  6325 ;;Total ram usage:        9 bytes
  6326 ;; Hardware stack levels used: 1
  6327 ;; Hardware stack levels required when called: 1
  6328 ;; This function calls:
  6329 ;;		Nothing
  6330 ;; This function is called by:
  6331 ;;		___flmul
  6332 ;; This function uses a non-reentrant model
  6333 ;;
  6334                           
  6335     1273                     __Umul8_16:	
  6336                           ;psect for function __Umul8_16
  6337                           
  6338                           
  6339                           ;incstack = 0
  6340                           ; Regs used in __Umul8_16: [wreg+status,2+status,0]
  6341                           ;__Umul8_16@multiplier stored from wreg
  6342     1273  1283               	bcf	3,5	;RP0=0, select bank0
  6343     1274  1303               	bcf	3,6	;RP1=0, select bank0
  6344     1275  00A4               	movwf	__Umul8_16@multiplier
  6345     1276                     l3507:
  6346     1276  01A0               	clrf	__Umul8_16@product
  6347     1277  01A1               	clrf	__Umul8_16@product+1
  6348     1278                     l3509:
  6349     1278  0872               	movf	__Umul8_16@multiplicand,w
  6350     1279  00F4               	movwf	??__Umul8_16
  6351     127A  01F5               	clrf	??__Umul8_16+1
  6352     127B  0874               	movf	??__Umul8_16,w
  6353     127C  00A2               	movwf	__Umul8_16@word_mpld
  6354     127D  0875               	movf	??__Umul8_16+1,w
  6355     127E  00A3               	movwf	__Umul8_16@word_mpld+1
  6356     127F                     l3511:
  6357     127F  1C24               	btfss	__Umul8_16@multiplier,0
  6358     1280  2A82               	goto	u4511
  6359     1281  2A83               	goto	u4510
  6360     1282                     u4511:
  6361     1282  2A89               	goto	l818
  6362     1283                     u4510:
  6363     1283                     l3513:
  6364     1283  0822               	movf	__Umul8_16@word_mpld,w
  6365     1284  07A0               	addwf	__Umul8_16@product,f
  6366     1285  1803               	skipnc
  6367     1286  0AA1               	incf	__Umul8_16@product+1,f
  6368     1287  0823               	movf	__Umul8_16@word_mpld+1,w
  6369     1288  07A1               	addwf	__Umul8_16@product+1,f
  6370     1289                     l818:
  6371     1289  3001               	movlw	1
  6372     128A                     u4525:
  6373     128A  1003               	clrc
  6374     128B  0DA2               	rlf	__Umul8_16@word_mpld,f
  6375     128C  0DA3               	rlf	__Umul8_16@word_mpld+1,f
  6376     128D  3EFF               	addlw	-1
  6377     128E  1D03               	skipz
  6378     128F  2A8A               	goto	u4525
  6379     1290  1003               	clrc
  6380     1291  0CA4               	rrf	__Umul8_16@multiplier,f
  6381     1292                     l3515:
  6382     1292  0824               	movf	__Umul8_16@multiplier,w
  6383     1293  1D03               	btfss	3,2
  6384     1294  2A96               	goto	u4531
  6385     1295  2A97               	goto	u4530
  6386     1296                     u4531:
  6387     1296  2A7F               	goto	l3511
  6388     1297                     u4530:
  6389     1297                     l3517:
  6390     1297  0821               	movf	__Umul8_16@product+1,w
  6391     1298  00F3               	movwf	?__Umul8_16+1
  6392     1299  0820               	movf	__Umul8_16@product,w
  6393     129A  00F2               	movwf	?__Umul8_16
  6394     129B                     l820:
  6395     129B  0008               	return
  6396     129C                     __end_of__Umul8_16:
  6397                           
  6398                           	psect	text19
  6399     037A                     __ptext19:	
  6400 ;; *************** function ___fladd *****************
  6401 ;; Defined at:
  6402 ;;		line 10 in file "C:\Program Files\Microchip\xc8\v2.41\pic\sources\c90\common\sprcadd.c"
  6403 ;; Parameters:    Size  Location     Type
  6404 ;;  b               4   63[BANK0 ] unsigned int 
  6405 ;;  a               4   67[BANK0 ] unsigned int 
  6406 ;; Auto vars:     Size  Location     Type
  6407 ;;  grs             1    3[BANK1 ] unsigned char 
  6408 ;;  bexp            1    2[BANK1 ] unsigned char 
  6409 ;;  aexp            1    1[BANK1 ] unsigned char 
  6410 ;;  signs           1    0[BANK1 ] unsigned char 
  6411 ;; Return value:  Size  Location     Type
  6412 ;;                  4   63[BANK0 ] unsigned char 
  6413 ;; Registers used:
  6414 ;;		wreg, status,2, status,0, btemp+1
  6415 ;; Tracked objects:
  6416 ;;		On entry : 0/0
  6417 ;;		On exit  : 0/0
  6418 ;;		Unchanged: 0/0
  6419 ;; Data sizes:     COMMON   BANK0   BANK1   BANK3   BANK2
  6420 ;;      Params:         0       8       0       0       0
  6421 ;;      Locals:         0       0       4       0       0
  6422 ;;      Temps:          0       8       0       0       0
  6423 ;;      Totals:         0      16       4       0       0
  6424 ;;Total ram usage:       20 bytes
  6425 ;; Hardware stack levels used: 1
  6426 ;; Hardware stack levels required when called: 1
  6427 ;; This function calls:
  6428 ;;		Nothing
  6429 ;; This function is called by:
  6430 ;;		_function_ambiental
  6431 ;;		_log
  6432 ;;		_eval_poly
  6433 ;; This function uses a non-reentrant model
  6434 ;;
  6435                           
  6436     037A                     ___fladd:	
  6437                           ;psect for function ___fladd
  6438                           
  6439     037A                     l2305:	
  6440                           ;incstack = 0
  6441                           ; Regs used in ___fladd: [wreg+status,2+status,0+btemp+1]
  6442                           
  6443     037A  1283               	bcf	3,5	;RP0=0, select bank0
  6444     037B  1303               	bcf	3,6	;RP1=0, select bank0
  6445     037C  0862               	movf	___fladd@b+3,w
  6446     037D  3980               	andlw	128
  6447     037E  1683               	bsf	3,5	;RP0=1, select bank1
  6448     037F  1303               	bcf	3,6	;RP1=0, select bank1
  6449     0380  00A0               	movwf	___fladd@signs^(0+128)
  6450     0381                     l2307:
  6451     0381  1283               	bcf	3,5	;RP0=0, select bank0
  6452     0382  1303               	bcf	3,6	;RP1=0, select bank0
  6453     0383  0862               	movf	___fladd@b+3,w
  6454     0384  00E7               	movwf	??___fladd
  6455     0385  0767               	addwf	??___fladd,w
  6456     0386  1683               	bsf	3,5	;RP0=1, select bank1
  6457     0387  1303               	bcf	3,6	;RP1=0, select bank1
  6458     0388  00A2               	movwf	___fladd@bexp^(0+128)
  6459     0389                     l2309:
  6460     0389  1283               	bcf	3,5	;RP0=0, select bank0
  6461     038A  1303               	bcf	3,6	;RP1=0, select bank0
  6462     038B  1FE1               	btfss	___fladd@b+2,7
  6463     038C  2B8E               	goto	u2331
  6464     038D  2B8F               	goto	u2330
  6465     038E                     u2331:
  6466     038E  2B92               	goto	l2313
  6467     038F                     u2330:
  6468     038F                     l2311:
  6469     038F  1683               	bsf	3,5	;RP0=1, select bank1
  6470     0390  1303               	bcf	3,6	;RP1=0, select bank1
  6471     0391  1422               	bsf	___fladd@bexp^(0+128),0
  6472     0392                     l2313:
  6473     0392  1683               	bsf	3,5	;RP0=1, select bank1
  6474     0393  1303               	bcf	3,6	;RP1=0, select bank1
  6475     0394  0822               	movf	___fladd@bexp^(0+128),w
  6476     0395  1903               	btfsc	3,2
  6477     0396  2B98               	goto	u2341
  6478     0397  2B99               	goto	u2340
  6479     0398                     u2341:
  6480     0398  2BAC               	goto	l2323
  6481     0399                     u2340:
  6482     0399                     l2315:
  6483     0399  0A22               	incf	___fladd@bexp^(0+128),w
  6484     039A  1D03               	btfss	3,2
  6485     039B  2B9D               	goto	u2351
  6486     039C  2B9E               	goto	u2350
  6487     039D                     u2351:
  6488     039D  2BA8               	goto	l2319
  6489     039E                     u2350:
  6490     039E                     l2317:
  6491     039E  3000               	movlw	0
  6492     039F  1283               	bcf	3,5	;RP0=0, select bank0
  6493     03A0  1303               	bcf	3,6	;RP1=0, select bank0
  6494     03A1  00E2               	movwf	___fladd@b+3
  6495     03A2  3000               	movlw	0
  6496     03A3  00E1               	movwf	___fladd@b+2
  6497     03A4  3000               	movlw	0
  6498     03A5  00E0               	movwf	___fladd@b+1
  6499     03A6  3000               	movlw	0
  6500     03A7  00DF               	movwf	___fladd@b
  6501     03A8                     l2319:
  6502     03A8  1283               	bcf	3,5	;RP0=0, select bank0
  6503     03A9  17E1               	bsf	___fladd@b+2,7
  6504     03AA                     l2321:
  6505     03AA  01E2               	clrf	___fladd@b+3
  6506     03AB  2BB6               	goto	l2325
  6507     03AC                     l2323:
  6508     03AC  3000               	movlw	0
  6509     03AD  1283               	bcf	3,5	;RP0=0, select bank0
  6510     03AE  1303               	bcf	3,6	;RP1=0, select bank0
  6511     03AF  00E2               	movwf	___fladd@b+3
  6512     03B0  3000               	movlw	0
  6513     03B1  00E1               	movwf	___fladd@b+2
  6514     03B2  3000               	movlw	0
  6515     03B3  00E0               	movwf	___fladd@b+1
  6516     03B4  3000               	movlw	0
  6517     03B5  00DF               	movwf	___fladd@b
  6518     03B6                     l2325:
  6519     03B6  0866               	movf	___fladd@a+3,w
  6520     03B7  3980               	andlw	128
  6521     03B8  1683               	bsf	3,5	;RP0=1, select bank1
  6522     03B9  1303               	bcf	3,6	;RP1=0, select bank1
  6523     03BA  00A1               	movwf	___fladd@aexp^(0+128)
  6524     03BB                     l2327:
  6525     03BB  0821               	movf	___fladd@aexp^(0+128),w
  6526     03BC  0620               	xorwf	___fladd@signs^(0+128),w
  6527     03BD  1903               	skipnz
  6528     03BE  2BC0               	goto	u2361
  6529     03BF  2BC1               	goto	u2360
  6530     03C0                     u2361:
  6531     03C0  2BC2               	goto	l2331
  6532     03C1                     u2360:
  6533     03C1                     l2329:
  6534     03C1  1720               	bsf	___fladd@signs^(0+128),6
  6535     03C2                     l2331:
  6536     03C2  1283               	bcf	3,5	;RP0=0, select bank0
  6537     03C3  1303               	bcf	3,6	;RP1=0, select bank0
  6538     03C4  0866               	movf	___fladd@a+3,w
  6539     03C5  00E7               	movwf	??___fladd
  6540     03C6  0767               	addwf	??___fladd,w
  6541     03C7  1683               	bsf	3,5	;RP0=1, select bank1
  6542     03C8  1303               	bcf	3,6	;RP1=0, select bank1
  6543     03C9  00A1               	movwf	___fladd@aexp^(0+128)
  6544     03CA                     l2333:
  6545     03CA  1283               	bcf	3,5	;RP0=0, select bank0
  6546     03CB  1303               	bcf	3,6	;RP1=0, select bank0
  6547     03CC  1FE5               	btfss	___fladd@a+2,7
  6548     03CD  2BCF               	goto	u2371
  6549     03CE  2BD0               	goto	u2370
  6550     03CF                     u2371:
  6551     03CF  2BD3               	goto	l2337
  6552     03D0                     u2370:
  6553     03D0                     l2335:
  6554     03D0  1683               	bsf	3,5	;RP0=1, select bank1
  6555     03D1  1303               	bcf	3,6	;RP1=0, select bank1
  6556     03D2  1421               	bsf	___fladd@aexp^(0+128),0
  6557     03D3                     l2337:
  6558     03D3  1683               	bsf	3,5	;RP0=1, select bank1
  6559     03D4  1303               	bcf	3,6	;RP1=0, select bank1
  6560     03D5  0821               	movf	___fladd@aexp^(0+128),w
  6561     03D6  1903               	btfsc	3,2
  6562     03D7  2BD9               	goto	u2381
  6563     03D8  2BDA               	goto	u2380
  6564     03D9                     u2381:
  6565     03D9  2BED               	goto	l2347
  6566     03DA                     u2380:
  6567     03DA                     l2339:
  6568     03DA  0A21               	incf	___fladd@aexp^(0+128),w
  6569     03DB  1D03               	btfss	3,2
  6570     03DC  2BDE               	goto	u2391
  6571     03DD  2BDF               	goto	u2390
  6572     03DE                     u2391:
  6573     03DE  2BE9               	goto	l2343
  6574     03DF                     u2390:
  6575     03DF                     l2341:
  6576     03DF  3000               	movlw	0
  6577     03E0  1283               	bcf	3,5	;RP0=0, select bank0
  6578     03E1  1303               	bcf	3,6	;RP1=0, select bank0
  6579     03E2  00E6               	movwf	___fladd@a+3
  6580     03E3  3000               	movlw	0
  6581     03E4  00E5               	movwf	___fladd@a+2
  6582     03E5  3000               	movlw	0
  6583     03E6  00E4               	movwf	___fladd@a+1
  6584     03E7  3000               	movlw	0
  6585     03E8  00E3               	movwf	___fladd@a
  6586     03E9                     l2343:
  6587     03E9  1283               	bcf	3,5	;RP0=0, select bank0
  6588     03EA  17E5               	bsf	___fladd@a+2,7
  6589     03EB                     l2345:
  6590     03EB  01E6               	clrf	___fladd@a+3
  6591     03EC  2BF7               	goto	l703
  6592     03ED                     l2347:
  6593     03ED  3000               	movlw	0
  6594     03EE  1283               	bcf	3,5	;RP0=0, select bank0
  6595     03EF  1303               	bcf	3,6	;RP1=0, select bank0
  6596     03F0  00E6               	movwf	___fladd@a+3
  6597     03F1  3000               	movlw	0
  6598     03F2  00E5               	movwf	___fladd@a+2
  6599     03F3  3000               	movlw	0
  6600     03F4  00E4               	movwf	___fladd@a+1
  6601     03F5  3000               	movlw	0
  6602     03F6  00E3               	movwf	___fladd@a
  6603     03F7                     l703:
  6604     03F7  1683               	bsf	3,5	;RP0=1, select bank1
  6605     03F8  1303               	bcf	3,6	;RP1=0, select bank1
  6606     03F9  0822               	movf	___fladd@bexp^(0+128),w
  6607     03FA  0221               	subwf	___fladd@aexp^(0+128),w
  6608     03FB  1803               	skipnc
  6609     03FC  2BFE               	goto	u2401
  6610     03FD  2BFF               	goto	u2400
  6611     03FE                     u2401:
  6612     03FE  2C47               	goto	l2383
  6613     03FF                     u2400:
  6614     03FF                     l2349:
  6615     03FF  1F20               	btfss	___fladd@signs^(0+128),6
  6616     0400  2C02               	goto	u2411
  6617     0401  2C03               	goto	u2410
  6618     0402                     u2411:
  6619     0402  2C07               	goto	l2353
  6620     0403                     u2410:
  6621     0403                     l2351:
  6622     0403  3080               	movlw	128
  6623     0404  00FF               	movwf	btemp+1
  6624     0405  087F               	movf	btemp+1,w
  6625     0406  06A0               	xorwf	___fladd@signs^(0+128),f
  6626     0407                     l2353:
  6627     0407  0822               	movf	___fladd@bexp^(0+128),w
  6628     0408  00A3               	movwf	___fladd@grs^(0+128)
  6629     0409                     l2355:
  6630     0409  0821               	movf	___fladd@aexp^(0+128),w
  6631     040A  00A2               	movwf	___fladd@bexp^(0+128)
  6632     040B                     l2357:
  6633     040B  0823               	movf	___fladd@grs^(0+128),w
  6634     040C  00A1               	movwf	___fladd@aexp^(0+128)
  6635     040D                     l2359:
  6636     040D  1283               	bcf	3,5	;RP0=0, select bank0
  6637     040E  1303               	bcf	3,6	;RP1=0, select bank0
  6638     040F  085F               	movf	___fladd@b,w
  6639     0410  1683               	bsf	3,5	;RP0=1, select bank1
  6640     0411  1303               	bcf	3,6	;RP1=0, select bank1
  6641     0412  00A3               	movwf	___fladd@grs^(0+128)
  6642     0413                     l2361:
  6643     0413  1283               	bcf	3,5	;RP0=0, select bank0
  6644     0414  1303               	bcf	3,6	;RP1=0, select bank0
  6645     0415  0863               	movf	___fladd@a,w
  6646     0416  00DF               	movwf	___fladd@b
  6647     0417                     l2363:
  6648     0417  1683               	bsf	3,5	;RP0=1, select bank1
  6649     0418  1303               	bcf	3,6	;RP1=0, select bank1
  6650     0419  0823               	movf	___fladd@grs^(0+128),w
  6651     041A  1283               	bcf	3,5	;RP0=0, select bank0
  6652     041B  1303               	bcf	3,6	;RP1=0, select bank0
  6653     041C  00E3               	movwf	___fladd@a
  6654     041D                     l2365:
  6655     041D  0860               	movf	___fladd@b+1,w
  6656     041E  1683               	bsf	3,5	;RP0=1, select bank1
  6657     041F  1303               	bcf	3,6	;RP1=0, select bank1
  6658     0420  00A3               	movwf	___fladd@grs^(0+128)
  6659     0421                     l2367:
  6660     0421  1283               	bcf	3,5	;RP0=0, select bank0
  6661     0422  1303               	bcf	3,6	;RP1=0, select bank0
  6662     0423  0864               	movf	___fladd@a+1,w
  6663     0424  00E0               	movwf	___fladd@b+1
  6664     0425                     l2369:
  6665     0425  1683               	bsf	3,5	;RP0=1, select bank1
  6666     0426  1303               	bcf	3,6	;RP1=0, select bank1
  6667     0427  0823               	movf	___fladd@grs^(0+128),w
  6668     0428  1283               	bcf	3,5	;RP0=0, select bank0
  6669     0429  1303               	bcf	3,6	;RP1=0, select bank0
  6670     042A  00E4               	movwf	___fladd@a+1
  6671     042B                     l2371:
  6672     042B  0861               	movf	___fladd@b+2,w
  6673     042C  1683               	bsf	3,5	;RP0=1, select bank1
  6674     042D  1303               	bcf	3,6	;RP1=0, select bank1
  6675     042E  00A3               	movwf	___fladd@grs^(0+128)
  6676     042F                     l2373:
  6677     042F  1283               	bcf	3,5	;RP0=0, select bank0
  6678     0430  1303               	bcf	3,6	;RP1=0, select bank0
  6679     0431  0865               	movf	___fladd@a+2,w
  6680     0432  00E1               	movwf	___fladd@b+2
  6681     0433                     l2375:
  6682     0433  1683               	bsf	3,5	;RP0=1, select bank1
  6683     0434  1303               	bcf	3,6	;RP1=0, select bank1
  6684     0435  0823               	movf	___fladd@grs^(0+128),w
  6685     0436  1283               	bcf	3,5	;RP0=0, select bank0
  6686     0437  1303               	bcf	3,6	;RP1=0, select bank0
  6687     0438  00E5               	movwf	___fladd@a+2
  6688     0439                     l2377:
  6689     0439  0862               	movf	___fladd@b+3,w
  6690     043A  1683               	bsf	3,5	;RP0=1, select bank1
  6691     043B  1303               	bcf	3,6	;RP1=0, select bank1
  6692     043C  00A3               	movwf	___fladd@grs^(0+128)
  6693     043D                     l2379:
  6694     043D  1283               	bcf	3,5	;RP0=0, select bank0
  6695     043E  1303               	bcf	3,6	;RP1=0, select bank0
  6696     043F  0866               	movf	___fladd@a+3,w
  6697     0440  00E2               	movwf	___fladd@b+3
  6698     0441                     l2381:
  6699     0441  1683               	bsf	3,5	;RP0=1, select bank1
  6700     0442  1303               	bcf	3,6	;RP1=0, select bank1
  6701     0443  0823               	movf	___fladd@grs^(0+128),w
  6702     0444  1283               	bcf	3,5	;RP0=0, select bank0
  6703     0445  1303               	bcf	3,6	;RP1=0, select bank0
  6704     0446  00E6               	movwf	___fladd@a+3
  6705     0447                     l2383:
  6706     0447  1683               	bsf	3,5	;RP0=1, select bank1
  6707     0448  1303               	bcf	3,6	;RP1=0, select bank1
  6708     0449  01A3               	clrf	___fladd@grs^(0+128)
  6709     044A                     l2385:
  6710     044A  0821               	movf	___fladd@aexp^(0+128),w
  6711     044B  1283               	bcf	3,5	;RP0=0, select bank0
  6712     044C  1303               	bcf	3,6	;RP1=0, select bank0
  6713     044D  00E7               	movwf	??___fladd
  6714     044E  01E8               	clrf	??___fladd+1
  6715     044F  0868               	movf	??___fladd+1,w
  6716     0450  00EA               	movwf	??___fladd+3
  6717     0451  1683               	bsf	3,5	;RP0=1, select bank1
  6718     0452  1303               	bcf	3,6	;RP1=0, select bank1
  6719     0453  0822               	movf	___fladd@bexp^(0+128),w
  6720     0454  1283               	bcf	3,5	;RP0=0, select bank0
  6721     0455  1303               	bcf	3,6	;RP1=0, select bank0
  6722     0456  0267               	subwf	??___fladd,w
  6723     0457  00E9               	movwf	??___fladd+2
  6724     0458  1C03               	skipc
  6725     0459  03EA               	decf	??___fladd+3,f
  6726     045A  086A               	movf	??___fladd+3,w
  6727     045B  3A80               	xorlw	128
  6728     045C  00FF               	movwf	btemp+1
  6729     045D  3080               	movlw	128
  6730     045E  027F               	subwf	btemp+1,w
  6731     045F  1D03               	skipz
  6732     0460  2C63               	goto	u2425
  6733     0461  301A               	movlw	26
  6734     0462  0269               	subwf	??___fladd+2,w
  6735     0463                     u2425:
  6736     0463  1C03               	skipc
  6737     0464  2C66               	goto	u2421
  6738     0465  2C67               	goto	u2420
  6739     0466                     u2421:
  6740     0466  2CAF               	goto	l2401
  6741     0467                     u2420:
  6742     0467                     l2387:
  6743     0467  1283               	bcf	3,5	;RP0=0, select bank0
  6744     0468  1303               	bcf	3,6	;RP1=0, select bank0
  6745     0469  0862               	movf	___fladd@b+3,w
  6746     046A  0461               	iorwf	___fladd@b+2,w
  6747     046B  0460               	iorwf	___fladd@b+1,w
  6748     046C  045F               	iorwf	___fladd@b,w
  6749     046D  1D03               	skipz
  6750     046E  2C70               	goto	u2431
  6751     046F  2C72               	goto	u2430
  6752     0470                     u2431:
  6753     0470  3001               	movlw	1
  6754     0471  2C73               	goto	u2440
  6755     0472                     u2430:
  6756     0472  3000               	movlw	0
  6757     0473                     u2440:
  6758     0473  1683               	bsf	3,5	;RP0=1, select bank1
  6759     0474  1303               	bcf	3,6	;RP1=0, select bank1
  6760     0475  00A3               	movwf	___fladd@grs^(0+128)
  6761     0476  3000               	movlw	0
  6762     0477  1283               	bcf	3,5	;RP0=0, select bank0
  6763     0478  1303               	bcf	3,6	;RP1=0, select bank0
  6764     0479  00E2               	movwf	___fladd@b+3
  6765     047A  3000               	movlw	0
  6766     047B  00E1               	movwf	___fladd@b+2
  6767     047C  3000               	movlw	0
  6768     047D  00E0               	movwf	___fladd@b+1
  6769     047E  3000               	movlw	0
  6770     047F  00DF               	movwf	___fladd@b
  6771     0480  1683               	bsf	3,5	;RP0=1, select bank1
  6772     0481  1303               	bcf	3,6	;RP1=0, select bank1
  6773     0482  0821               	movf	___fladd@aexp^(0+128),w
  6774     0483  00A2               	movwf	___fladd@bexp^(0+128)
  6775     0484  2CB7               	goto	l707
  6776     0485                     l709:
  6777     0485  1C23               	btfss	___fladd@grs^(0+128),0
  6778     0486  2C88               	goto	u2451
  6779     0487  2C89               	goto	u2450
  6780     0488                     u2451:
  6781     0488  2C94               	goto	l2391
  6782     0489                     u2450:
  6783     0489                     l2389:
  6784     0489  0823               	movf	___fladd@grs^(0+128),w
  6785     048A  1283               	bcf	3,5	;RP0=0, select bank0
  6786     048B  1303               	bcf	3,6	;RP1=0, select bank0
  6787     048C  00E7               	movwf	??___fladd
  6788     048D  1003               	clrc
  6789     048E  0C67               	rrf	??___fladd,w
  6790     048F  3801               	iorlw	1
  6791     0490  1683               	bsf	3,5	;RP0=1, select bank1
  6792     0491  1303               	bcf	3,6	;RP1=0, select bank1
  6793     0492  00A3               	movwf	___fladd@grs^(0+128)
  6794     0493  2C96               	goto	l2393
  6795     0494                     l2391:
  6796     0494  1003               	clrc
  6797     0495  0CA3               	rrf	___fladd@grs^(0+128),f
  6798     0496                     l2393:
  6799     0496  1283               	bcf	3,5	;RP0=0, select bank0
  6800     0497  1303               	bcf	3,6	;RP1=0, select bank0
  6801     0498  1C5F               	btfss	___fladd@b,0
  6802     0499  2C9B               	goto	u2461
  6803     049A  2C9C               	goto	u2460
  6804     049B                     u2461:
  6805     049B  2C9F               	goto	l2397
  6806     049C                     u2460:
  6807     049C                     l2395:
  6808     049C  1683               	bsf	3,5	;RP0=1, select bank1
  6809     049D  1303               	bcf	3,6	;RP1=0, select bank1
  6810     049E  17A3               	bsf	___fladd@grs^(0+128),7
  6811     049F                     l2397:
  6812     049F  3001               	movlw	1
  6813     04A0  1283               	bcf	3,5	;RP0=0, select bank0
  6814     04A1  00E7               	movwf	??___fladd
  6815     04A2                     u2475:
  6816     04A2  0D62               	rlf	___fladd@b+3,w
  6817     04A3  0CE2               	rrf	___fladd@b+3,f
  6818     04A4  0CE1               	rrf	___fladd@b+2,f
  6819     04A5  0CE0               	rrf	___fladd@b+1,f
  6820     04A6  0CDF               	rrf	___fladd@b,f
  6821     04A7  0BE7               	decfsz	??___fladd& (0+127),f
  6822     04A8  2CA2               	goto	u2475
  6823     04A9                     l2399:
  6824     04A9  3001               	movlw	1
  6825     04AA  00FF               	movwf	btemp+1
  6826     04AB  087F               	movf	btemp+1,w
  6827     04AC  1683               	bsf	3,5	;RP0=1, select bank1
  6828     04AD  1303               	bcf	3,6	;RP1=0, select bank1
  6829     04AE  07A2               	addwf	___fladd@bexp^(0+128),f
  6830     04AF                     l2401:
  6831     04AF  1683               	bsf	3,5	;RP0=1, select bank1
  6832     04B0  1303               	bcf	3,6	;RP1=0, select bank1
  6833     04B1  0821               	movf	___fladd@aexp^(0+128),w
  6834     04B2  0222               	subwf	___fladd@bexp^(0+128),w
  6835     04B3  1C03               	skipc
  6836     04B4  2CB6               	goto	u2481
  6837     04B5  2CB7               	goto	u2480
  6838     04B6                     u2481:
  6839     04B6  2C85               	goto	l709
  6840     04B7                     u2480:
  6841     04B7                     l707:
  6842     04B7  1B20               	btfsc	___fladd@signs^(0+128),6
  6843     04B8  2CBA               	goto	u2491
  6844     04B9  2CBB               	goto	u2490
  6845     04BA                     u2491:
  6846     04BA  2D15               	goto	l2427
  6847     04BB                     u2490:
  6848     04BB                     l2403:
  6849     04BB  0822               	movf	___fladd@bexp^(0+128),w
  6850     04BC  1D03               	btfss	3,2
  6851     04BD  2CBF               	goto	u2501
  6852     04BE  2CC0               	goto	u2500
  6853     04BF                     u2501:
  6854     04BF  2CCB               	goto	l2409
  6855     04C0                     u2500:
  6856     04C0                     l2405:
  6857     04C0  3000               	movlw	0
  6858     04C1  1283               	bcf	3,5	;RP0=0, select bank0
  6859     04C2  1303               	bcf	3,6	;RP1=0, select bank0
  6860     04C3  00E2               	movwf	?___fladd+3
  6861     04C4  3000               	movlw	0
  6862     04C5  00E1               	movwf	?___fladd+2
  6863     04C6  3000               	movlw	0
  6864     04C7  00E0               	movwf	?___fladd+1
  6865     04C8  3000               	movlw	0
  6866     04C9  00DF               	movwf	?___fladd
  6867     04CA  2E71               	goto	l716
  6868     04CB                     l2409:
  6869     04CB  1283               	bcf	3,5	;RP0=0, select bank0
  6870     04CC  1303               	bcf	3,6	;RP1=0, select bank0
  6871     04CD  0863               	movf	___fladd@a,w
  6872     04CE  07DF               	addwf	___fladd@b,f
  6873     04CF  0864               	movf	___fladd@a+1,w
  6874     04D0  1103               	clrz
  6875     04D1  1803               	skipnc
  6876     04D2  3E01               	addlw	1
  6877     04D3  1903               	skipnz
  6878     04D4  2CD6               	goto	u2511
  6879     04D5  07E0               	addwf	___fladd@b+1,f
  6880     04D6                     u2511:
  6881     04D6  0865               	movf	___fladd@a+2,w
  6882     04D7  1103               	clrz
  6883     04D8  1803               	skipnc
  6884     04D9  3E01               	addlw	1
  6885     04DA  1903               	skipnz
  6886     04DB  2CDD               	goto	u2512
  6887     04DC  07E1               	addwf	___fladd@b+2,f
  6888     04DD                     u2512:
  6889     04DD  0866               	movf	___fladd@a+3,w
  6890     04DE  1103               	clrz
  6891     04DF  1803               	skipnc
  6892     04E0  3E01               	addlw	1
  6893     04E1  1903               	skipnz
  6894     04E2  2CE4               	goto	u2513
  6895     04E3  07E2               	addwf	___fladd@b+3,f
  6896     04E4                     u2513:
  6897     04E4                     l2411:
  6898     04E4  1C62               	btfss	___fladd@b+3,0
  6899     04E5  2CE7               	goto	u2521
  6900     04E6  2CE8               	goto	u2520
  6901     04E7                     u2521:
  6902     04E7  2DDB               	goto	l2463
  6903     04E8                     u2520:
  6904     04E8                     l2413:
  6905     04E8  1683               	bsf	3,5	;RP0=1, select bank1
  6906     04E9  1303               	bcf	3,6	;RP1=0, select bank1
  6907     04EA  1C23               	btfss	___fladd@grs^(0+128),0
  6908     04EB  2CED               	goto	u2531
  6909     04EC  2CEE               	goto	u2530
  6910     04ED                     u2531:
  6911     04ED  2CF9               	goto	l2417
  6912     04EE                     u2530:
  6913     04EE                     l2415:
  6914     04EE  0823               	movf	___fladd@grs^(0+128),w
  6915     04EF  1283               	bcf	3,5	;RP0=0, select bank0
  6916     04F0  1303               	bcf	3,6	;RP1=0, select bank0
  6917     04F1  00E7               	movwf	??___fladd
  6918     04F2  1003               	clrc
  6919     04F3  0C67               	rrf	??___fladd,w
  6920     04F4  3801               	iorlw	1
  6921     04F5  1683               	bsf	3,5	;RP0=1, select bank1
  6922     04F6  1303               	bcf	3,6	;RP1=0, select bank1
  6923     04F7  00A3               	movwf	___fladd@grs^(0+128)
  6924     04F8  2CFB               	goto	l2419
  6925     04F9                     l2417:
  6926     04F9  1003               	clrc
  6927     04FA  0CA3               	rrf	___fladd@grs^(0+128),f
  6928     04FB                     l2419:
  6929     04FB  1283               	bcf	3,5	;RP0=0, select bank0
  6930     04FC  1303               	bcf	3,6	;RP1=0, select bank0
  6931     04FD  1C5F               	btfss	___fladd@b,0
  6932     04FE  2D00               	goto	u2541
  6933     04FF  2D01               	goto	u2540
  6934     0500                     u2541:
  6935     0500  2D04               	goto	l2423
  6936     0501                     u2540:
  6937     0501                     l2421:
  6938     0501  1683               	bsf	3,5	;RP0=1, select bank1
  6939     0502  1303               	bcf	3,6	;RP1=0, select bank1
  6940     0503  17A3               	bsf	___fladd@grs^(0+128),7
  6941     0504                     l2423:
  6942     0504  3001               	movlw	1
  6943     0505  1283               	bcf	3,5	;RP0=0, select bank0
  6944     0506  00E7               	movwf	??___fladd
  6945     0507                     u2555:
  6946     0507  0D62               	rlf	___fladd@b+3,w
  6947     0508  0CE2               	rrf	___fladd@b+3,f
  6948     0509  0CE1               	rrf	___fladd@b+2,f
  6949     050A  0CE0               	rrf	___fladd@b+1,f
  6950     050B  0CDF               	rrf	___fladd@b,f
  6951     050C  0BE7               	decfsz	??___fladd& (0+127),f
  6952     050D  2D07               	goto	u2555
  6953     050E                     l2425:
  6954     050E  3001               	movlw	1
  6955     050F  00FF               	movwf	btemp+1
  6956     0510  087F               	movf	btemp+1,w
  6957     0511  1683               	bsf	3,5	;RP0=1, select bank1
  6958     0512  1303               	bcf	3,6	;RP1=0, select bank1
  6959     0513  07A2               	addwf	___fladd@bexp^(0+128),f
  6960     0514  2DDB               	goto	l2463
  6961     0515                     l2427:
  6962     0515  1283               	bcf	3,5	;RP0=0, select bank0
  6963     0516  1303               	bcf	3,6	;RP1=0, select bank0
  6964     0517  0862               	movf	___fladd@b+3,w
  6965     0518  3A80               	xorlw	128
  6966     0519  00FF               	movwf	btemp+1
  6967     051A  0866               	movf	___fladd@a+3,w
  6968     051B  3A80               	xorlw	128
  6969     051C  027F               	subwf	btemp+1,w
  6970     051D  1D03               	skipz
  6971     051E  2D29               	goto	u2563
  6972     051F  0865               	movf	___fladd@a+2,w
  6973     0520  0261               	subwf	___fladd@b+2,w
  6974     0521  1D03               	skipz
  6975     0522  2D29               	goto	u2563
  6976     0523  0864               	movf	___fladd@a+1,w
  6977     0524  0260               	subwf	___fladd@b+1,w
  6978     0525  1D03               	skipz
  6979     0526  2D29               	goto	u2563
  6980     0527  0863               	movf	___fladd@a,w
  6981     0528  025F               	subwf	___fladd@b,w
  6982     0529                     u2563:
  6983     0529  1803               	skipnc
  6984     052A  2D2C               	goto	u2561
  6985     052B  2D2D               	goto	u2560
  6986     052C                     u2561:
  6987     052C  2D89               	goto	l2439
  6988     052D                     u2560:
  6989     052D                     l2429:
  6990     052D  30FF               	movlw	255
  6991     052E  00E7               	movwf	??___fladd
  6992     052F  30FF               	movlw	255
  6993     0530  00E8               	movwf	??___fladd+1
  6994     0531  30FF               	movlw	255
  6995     0532  00E9               	movwf	??___fladd+2
  6996     0533  30FF               	movlw	255
  6997     0534  00EA               	movwf	??___fladd+3
  6998     0535  0863               	movf	___fladd@a,w
  6999     0536  00EB               	movwf	??___fladd+4
  7000     0537  0864               	movf	___fladd@a+1,w
  7001     0538  00EC               	movwf	??___fladd+5
  7002     0539  0865               	movf	___fladd@a+2,w
  7003     053A  00ED               	movwf	??___fladd+6
  7004     053B  0866               	movf	___fladd@a+3,w
  7005     053C  00EE               	movwf	??___fladd+7
  7006     053D  085F               	movf	___fladd@b,w
  7007     053E  02EB               	subwf	??___fladd+4,f
  7008     053F  0860               	movf	___fladd@b+1,w
  7009     0540  1C03               	skipc
  7010     0541  0F60               	incfsz	___fladd@b+1,w
  7011     0542  2D44               	goto	u2571
  7012     0543  2D45               	goto	u2572
  7013     0544                     u2571:
  7014     0544  02EC               	subwf	??___fladd+5,f
  7015     0545                     u2572:
  7016     0545  0861               	movf	___fladd@b+2,w
  7017     0546  1C03               	skipc
  7018     0547  0F61               	incfsz	___fladd@b+2,w
  7019     0548  2D4A               	goto	u2573
  7020     0549  2D4B               	goto	u2574
  7021     054A                     u2573:
  7022     054A  02ED               	subwf	??___fladd+6,f
  7023     054B                     u2574:
  7024     054B  0862               	movf	___fladd@b+3,w
  7025     054C  1C03               	skipc
  7026     054D  0F62               	incfsz	___fladd@b+3,w
  7027     054E  2D50               	goto	u2575
  7028     054F  2D51               	goto	u2576
  7029     0550                     u2575:
  7030     0550  02EE               	subwf	??___fladd+7,f
  7031     0551                     u2576:
  7032     0551  086B               	movf	??___fladd+4,w
  7033     0552  07E7               	addwf	??___fladd,f
  7034     0553  086C               	movf	??___fladd+5,w
  7035     0554  1803               	skipnc
  7036     0555  0F6C               	incfsz	??___fladd+5,w
  7037     0556  2D58               	goto	u2580
  7038     0557  2D59               	goto	u2581
  7039     0558                     u2580:
  7040     0558  07E8               	addwf	??___fladd+1,f
  7041     0559                     u2581:
  7042     0559  086D               	movf	??___fladd+6,w
  7043     055A  1803               	skipnc
  7044     055B  0F6D               	incfsz	??___fladd+6,w
  7045     055C  2D5E               	goto	u2582
  7046     055D  2D5F               	goto	u2583
  7047     055E                     u2582:
  7048     055E  07E9               	addwf	??___fladd+2,f
  7049     055F                     u2583:
  7050     055F  086E               	movf	??___fladd+7,w
  7051     0560  1803               	skipnc
  7052     0561  0A6E               	incf	??___fladd+7,w
  7053     0562  07EA               	addwf	??___fladd+3,f
  7054     0563  086A               	movf	??___fladd+3,w
  7055     0564  00E2               	movwf	___fladd@b+3
  7056     0565  0869               	movf	??___fladd+2,w
  7057     0566  00E1               	movwf	___fladd@b+2
  7058     0567  0868               	movf	??___fladd+1,w
  7059     0568  00E0               	movwf	___fladd@b+1
  7060     0569  0867               	movf	??___fladd,w
  7061     056A  00DF               	movwf	___fladd@b
  7062     056B                     l2431:
  7063     056B  3080               	movlw	128
  7064     056C  00FF               	movwf	btemp+1
  7065     056D  087F               	movf	btemp+1,w
  7066     056E  1683               	bsf	3,5	;RP0=1, select bank1
  7067     056F  1303               	bcf	3,6	;RP1=0, select bank1
  7068     0570  06A0               	xorwf	___fladd@signs^(0+128),f
  7069     0571                     l2433:
  7070     0571  09A3               	comf	___fladd@grs^(0+128),f
  7071     0572  0AA3               	incf	___fladd@grs^(0+128),f
  7072     0573                     l2435:
  7073     0573  0823               	movf	___fladd@grs^(0+128),w
  7074     0574  1D03               	btfss	3,2
  7075     0575  2D77               	goto	u2591
  7076     0576  2D78               	goto	u2590
  7077     0577                     u2591:
  7078     0577  2D97               	goto	l724
  7079     0578                     u2590:
  7080     0578                     l2437:
  7081     0578  3001               	movlw	1
  7082     0579  1283               	bcf	3,5	;RP0=0, select bank0
  7083     057A  1303               	bcf	3,6	;RP1=0, select bank0
  7084     057B  07DF               	addwf	___fladd@b,f
  7085     057C  3000               	movlw	0
  7086     057D  1803               	skipnc
  7087     057E  3001               	movlw	1
  7088     057F  07E0               	addwf	___fladd@b+1,f
  7089     0580  3000               	movlw	0
  7090     0581  1803               	skipnc
  7091     0582  3001               	movlw	1
  7092     0583  07E1               	addwf	___fladd@b+2,f
  7093     0584  3000               	movlw	0
  7094     0585  1803               	skipnc
  7095     0586  3001               	movlw	1
  7096     0587  07E2               	addwf	___fladd@b+3,f
  7097     0588  2D97               	goto	l724
  7098     0589                     l2439:
  7099     0589  0863               	movf	___fladd@a,w
  7100     058A  02DF               	subwf	___fladd@b,f
  7101     058B  0864               	movf	___fladd@a+1,w
  7102     058C  1C03               	skipc
  7103     058D  0F64               	incfsz	___fladd@a+1,w
  7104     058E  02E0               	subwf	___fladd@b+1,f
  7105     058F  0865               	movf	___fladd@a+2,w
  7106     0590  1C03               	skipc
  7107     0591  0F65               	incfsz	___fladd@a+2,w
  7108     0592  02E1               	subwf	___fladd@b+2,f
  7109     0593  0866               	movf	___fladd@a+3,w
  7110     0594  1C03               	skipc
  7111     0595  0F66               	incfsz	___fladd@a+3,w
  7112     0596  02E2               	subwf	___fladd@b+3,f
  7113     0597                     l724:
  7114     0597  1283               	bcf	3,5	;RP0=0, select bank0
  7115     0598  0862               	movf	___fladd@b+3,w
  7116     0599  0461               	iorwf	___fladd@b+2,w
  7117     059A  0460               	iorwf	___fladd@b+1,w
  7118     059B  045F               	iorwf	___fladd@b,w
  7119     059C  1D03               	skipz
  7120     059D  2D9F               	goto	u2601
  7121     059E  2DA0               	goto	u2600
  7122     059F                     u2601:
  7123     059F  2DD6               	goto	l2461
  7124     05A0                     u2600:
  7125     05A0                     l2441:
  7126     05A0  1683               	bsf	3,5	;RP0=1, select bank1
  7127     05A1  1303               	bcf	3,6	;RP1=0, select bank1
  7128     05A2  0823               	movf	___fladd@grs^(0+128),w
  7129     05A3  1D03               	btfss	3,2
  7130     05A4  2DA6               	goto	u2611
  7131     05A5  2DA7               	goto	u2610
  7132     05A6                     u2611:
  7133     05A6  2DD6               	goto	l2461
  7134     05A7                     u2610:
  7135     05A7                     l2443:
  7136     05A7  3000               	movlw	0
  7137     05A8  1283               	bcf	3,5	;RP0=0, select bank0
  7138     05A9  1303               	bcf	3,6	;RP1=0, select bank0
  7139     05AA  00E2               	movwf	?___fladd+3
  7140     05AB  3000               	movlw	0
  7141     05AC  00E1               	movwf	?___fladd+2
  7142     05AD  3000               	movlw	0
  7143     05AE  00E0               	movwf	?___fladd+1
  7144     05AF  3000               	movlw	0
  7145     05B0  00DF               	movwf	?___fladd
  7146     05B1  2E71               	goto	l716
  7147     05B2                     l2447:
  7148     05B2  3001               	movlw	1
  7149     05B3  00E7               	movwf	??___fladd
  7150     05B4                     u2625:
  7151     05B4  1003               	clrc
  7152     05B5  0DDF               	rlf	___fladd@b,f
  7153     05B6  0DE0               	rlf	___fladd@b+1,f
  7154     05B7  0DE1               	rlf	___fladd@b+2,f
  7155     05B8  0DE2               	rlf	___fladd@b+3,f
  7156     05B9  0BE7               	decfsz	??___fladd,f
  7157     05BA  2DB4               	goto	u2625
  7158     05BB                     l2449:
  7159     05BB  1683               	bsf	3,5	;RP0=1, select bank1
  7160     05BC  1303               	bcf	3,6	;RP1=0, select bank1
  7161     05BD  1FA3               	btfss	___fladd@grs^(0+128),7
  7162     05BE  2DC0               	goto	u2631
  7163     05BF  2DC1               	goto	u2630
  7164     05C0                     u2631:
  7165     05C0  2DC4               	goto	l728
  7166     05C1                     u2630:
  7167     05C1                     l2451:
  7168     05C1  1283               	bcf	3,5	;RP0=0, select bank0
  7169     05C2  1303               	bcf	3,6	;RP1=0, select bank0
  7170     05C3  145F               	bsf	___fladd@b,0
  7171     05C4                     l728:
  7172     05C4  1683               	bsf	3,5	;RP0=1, select bank1
  7173     05C5  1303               	bcf	3,6	;RP1=0, select bank1
  7174     05C6  1C23               	btfss	___fladd@grs^(0+128),0
  7175     05C7  2DC9               	goto	u2641
  7176     05C8  2DCA               	goto	u2640
  7177     05C9                     u2641:
  7178     05C9  2DCD               	goto	l2455
  7179     05CA                     u2640:
  7180     05CA                     l2453:
  7181     05CA  1403               	setc
  7182     05CB  0DA3               	rlf	___fladd@grs^(0+128),f
  7183     05CC  2DCF               	goto	l2457
  7184     05CD                     l2455:
  7185     05CD  1003               	clrc
  7186     05CE  0DA3               	rlf	___fladd@grs^(0+128),f
  7187     05CF                     l2457:
  7188     05CF  0822               	movf	___fladd@bexp^(0+128),w
  7189     05D0  1903               	btfsc	3,2
  7190     05D1  2DD3               	goto	u2651
  7191     05D2  2DD4               	goto	u2650
  7192     05D3                     u2651:
  7193     05D3  2DD6               	goto	l2461
  7194     05D4                     u2650:
  7195     05D4                     l2459:
  7196     05D4  3001               	movlw	1
  7197     05D5  02A2               	subwf	___fladd@bexp^(0+128),f
  7198     05D6                     l2461:
  7199     05D6  1283               	bcf	3,5	;RP0=0, select bank0
  7200     05D7  1FE1               	btfss	___fladd@b+2,7
  7201     05D8  2DDA               	goto	u2661
  7202     05D9  2DDB               	goto	u2660
  7203     05DA                     u2661:
  7204     05DA  2DB2               	goto	l2447
  7205     05DB                     u2660:
  7206     05DB                     l2463:
  7207     05DB  1683               	bsf	3,5	;RP0=1, select bank1
  7208     05DC  1303               	bcf	3,6	;RP1=0, select bank1
  7209     05DD  01A1               	clrf	___fladd@aexp^(0+128)
  7210     05DE                     l2465:
  7211     05DE  1FA3               	btfss	___fladd@grs^(0+128),7
  7212     05DF  2DE1               	goto	u2671
  7213     05E0  2DE2               	goto	u2670
  7214     05E1                     u2671:
  7215     05E1  2DF4               	goto	l2473
  7216     05E2                     u2670:
  7217     05E2                     l2467:
  7218     05E2  0823               	movf	___fladd@grs^(0+128),w
  7219     05E3  397F               	andlw	127
  7220     05E4  1903               	btfsc	3,2
  7221     05E5  2DE7               	goto	u2681
  7222     05E6  2DE8               	goto	u2680
  7223     05E7                     u2681:
  7224     05E7  2DED               	goto	l734
  7225     05E8                     u2680:
  7226     05E8                     l2469:
  7227     05E8  1683               	bsf	3,5	;RP0=1, select bank1
  7228     05E9  1303               	bcf	3,6	;RP1=0, select bank1
  7229     05EA  01A1               	clrf	___fladd@aexp^(0+128)
  7230     05EB  0AA1               	incf	___fladd@aexp^(0+128),f
  7231     05EC  2DF4               	goto	l2473
  7232     05ED                     l734:
  7233     05ED  1283               	bcf	3,5	;RP0=0, select bank0
  7234     05EE  1303               	bcf	3,6	;RP1=0, select bank0
  7235     05EF  1C5F               	btfss	___fladd@b,0
  7236     05F0  2DF2               	goto	u2691
  7237     05F1  2DF3               	goto	u2690
  7238     05F2                     u2691:
  7239     05F2  2DF4               	goto	l2473
  7240     05F3                     u2690:
  7241     05F3  2DE8               	goto	l2469
  7242     05F4                     l2473:
  7243     05F4  1683               	bsf	3,5	;RP0=1, select bank1
  7244     05F5  1303               	bcf	3,6	;RP1=0, select bank1
  7245     05F6  0821               	movf	___fladd@aexp^(0+128),w
  7246     05F7  1903               	btfsc	3,2
  7247     05F8  2DFA               	goto	u2701
  7248     05F9  2DFB               	goto	u2700
  7249     05FA                     u2701:
  7250     05FA  2E33               	goto	l2483
  7251     05FB                     u2700:
  7252     05FB                     l2475:
  7253     05FB  3001               	movlw	1
  7254     05FC  1283               	bcf	3,5	;RP0=0, select bank0
  7255     05FD  1303               	bcf	3,6	;RP1=0, select bank0
  7256     05FE  07DF               	addwf	___fladd@b,f
  7257     05FF  3000               	movlw	0
  7258     0600  1803               	skipnc
  7259     0601  3001               	movlw	1
  7260     0602  07E0               	addwf	___fladd@b+1,f
  7261     0603  3000               	movlw	0
  7262     0604  1803               	skipnc
  7263     0605  3001               	movlw	1
  7264     0606  07E1               	addwf	___fladd@b+2,f
  7265     0607  3000               	movlw	0
  7266     0608  1803               	skipnc
  7267     0609  3001               	movlw	1
  7268     060A  07E2               	addwf	___fladd@b+3,f
  7269     060B                     l2477:
  7270     060B  1C62               	btfss	___fladd@b+3,0
  7271     060C  2E0E               	goto	u2711
  7272     060D  2E0F               	goto	u2710
  7273     060E                     u2711:
  7274     060E  2E33               	goto	l2483
  7275     060F                     u2710:
  7276     060F                     l2479:
  7277     060F  085F               	movf	___fladd@b,w
  7278     0610  00E7               	movwf	??___fladd
  7279     0611  0860               	movf	___fladd@b+1,w
  7280     0612  00E8               	movwf	??___fladd+1
  7281     0613  0861               	movf	___fladd@b+2,w
  7282     0614  00E9               	movwf	??___fladd+2
  7283     0615  0862               	movf	___fladd@b+3,w
  7284     0616  00EA               	movwf	??___fladd+3
  7285     0617  3001               	movlw	1
  7286     0618  00EB               	movwf	??___fladd+4
  7287     0619                     u2725:
  7288     0619  0D6A               	rlf	??___fladd+3,w
  7289     061A  0CEA               	rrf	??___fladd+3,f
  7290     061B  0CE9               	rrf	??___fladd+2,f
  7291     061C  0CE8               	rrf	??___fladd+1,f
  7292     061D  0CE7               	rrf	??___fladd,f
  7293     061E                     u2720:
  7294     061E  0BEB               	decfsz	??___fladd+4,f
  7295     061F  2E19               	goto	u2725
  7296     0620  086A               	movf	??___fladd+3,w
  7297     0621  00E2               	movwf	___fladd@b+3
  7298     0622  0869               	movf	??___fladd+2,w
  7299     0623  00E1               	movwf	___fladd@b+2
  7300     0624  0868               	movf	??___fladd+1,w
  7301     0625  00E0               	movwf	___fladd@b+1
  7302     0626  0867               	movf	??___fladd,w
  7303     0627  00DF               	movwf	___fladd@b
  7304     0628  1683               	bsf	3,5	;RP0=1, select bank1
  7305     0629  1303               	bcf	3,6	;RP1=0, select bank1
  7306     062A  0A22               	incf	___fladd@bexp^(0+128),w
  7307     062B  1903               	btfsc	3,2
  7308     062C  2E2E               	goto	u2731
  7309     062D  2E2F               	goto	u2730
  7310     062E                     u2731:
  7311     062E  2E33               	goto	l2483
  7312     062F                     u2730:
  7313     062F                     l2481:
  7314     062F  3001               	movlw	1
  7315     0630  00FF               	movwf	btemp+1
  7316     0631  087F               	movf	btemp+1,w
  7317     0632  07A2               	addwf	___fladd@bexp^(0+128),f
  7318     0633                     l2483:
  7319     0633  1683               	bsf	3,5	;RP0=1, select bank1
  7320     0634  1303               	bcf	3,6	;RP1=0, select bank1
  7321     0635  0A22               	incf	___fladd@bexp^(0+128),w
  7322     0636  1903               	btfsc	3,2
  7323     0637  2E39               	goto	u2741
  7324     0638  2E3A               	goto	u2740
  7325     0639                     u2741:
  7326     0639  2E3F               	goto	l2487
  7327     063A                     u2740:
  7328     063A                     l2485:
  7329     063A  0822               	movf	___fladd@bexp^(0+128),w
  7330     063B  1D03               	btfss	3,2
  7331     063C  2E3E               	goto	u2751
  7332     063D  2E3F               	goto	u2750
  7333     063E                     u2751:
  7334     063E  2E51               	goto	l2493
  7335     063F                     u2750:
  7336     063F                     l2487:
  7337     063F  3000               	movlw	0
  7338     0640  1283               	bcf	3,5	;RP0=0, select bank0
  7339     0641  1303               	bcf	3,6	;RP1=0, select bank0
  7340     0642  00E2               	movwf	___fladd@b+3
  7341     0643  3000               	movlw	0
  7342     0644  00E1               	movwf	___fladd@b+2
  7343     0645  3000               	movlw	0
  7344     0646  00E0               	movwf	___fladd@b+1
  7345     0647  3000               	movlw	0
  7346     0648  00DF               	movwf	___fladd@b
  7347     0649                     l2489:
  7348     0649  1683               	bsf	3,5	;RP0=1, select bank1
  7349     064A  1303               	bcf	3,6	;RP1=0, select bank1
  7350     064B  0822               	movf	___fladd@bexp^(0+128),w
  7351     064C  1D03               	btfss	3,2
  7352     064D  2E4F               	goto	u2761
  7353     064E  2E50               	goto	u2760
  7354     064F                     u2761:
  7355     064F  2E51               	goto	l2493
  7356     0650                     u2760:
  7357     0650                     l2491:
  7358     0650  01A0               	clrf	___fladd@signs^(0+128)
  7359     0651                     l2493:
  7360     0651  1C22               	btfss	___fladd@bexp^(0+128),0
  7361     0652  2E54               	goto	u2771
  7362     0653  2E55               	goto	u2770
  7363     0654                     u2771:
  7364     0654  2E59               	goto	l2497
  7365     0655                     u2770:
  7366     0655                     l2495:
  7367     0655  1283               	bcf	3,5	;RP0=0, select bank0
  7368     0656  1303               	bcf	3,6	;RP1=0, select bank0
  7369     0657  17E1               	bsf	___fladd@b+2,7
  7370     0658  2E5F               	goto	l2499
  7371     0659                     l2497:
  7372     0659  307F               	movlw	127
  7373     065A  00FF               	movwf	btemp+1
  7374     065B  087F               	movf	btemp+1,w
  7375     065C  1283               	bcf	3,5	;RP0=0, select bank0
  7376     065D  1303               	bcf	3,6	;RP1=0, select bank0
  7377     065E  05E1               	andwf	___fladd@b+2,f
  7378     065F                     l2499:
  7379     065F  1683               	bsf	3,5	;RP0=1, select bank1
  7380     0660  1303               	bcf	3,6	;RP1=0, select bank1
  7381     0661  0822               	movf	___fladd@bexp^(0+128),w
  7382     0662  1283               	bcf	3,5	;RP0=0, select bank0
  7383     0663  1303               	bcf	3,6	;RP1=0, select bank0
  7384     0664  00E7               	movwf	??___fladd
  7385     0665  1003               	clrc
  7386     0666  0C67               	rrf	??___fladd,w
  7387     0667  00E2               	movwf	___fladd@b+3
  7388     0668                     l2501:
  7389     0668  1683               	bsf	3,5	;RP0=1, select bank1
  7390     0669  1303               	bcf	3,6	;RP1=0, select bank1
  7391     066A  1FA0               	btfss	___fladd@signs^(0+128),7
  7392     066B  2E6D               	goto	u2781
  7393     066C  2E6E               	goto	u2780
  7394     066D                     u2781:
  7395     066D  2E71               	goto	l746
  7396     066E                     u2780:
  7397     066E                     l2503:
  7398     066E  1283               	bcf	3,5	;RP0=0, select bank0
  7399     066F  1303               	bcf	3,6	;RP1=0, select bank0
  7400     0670  17E2               	bsf	___fladd@b+3,7
  7401     0671                     l746:
  7402     0671                     l716:
  7403     0671  0008               	return
  7404     0672                     __end_of___fladd:
  7405                           
  7406                           	psect	text20
  7407     1675                     __ptext20:	
  7408 ;; *************** function ___xxtofl *****************
  7409 ;; Defined at:
  7410 ;;		line 10 in file "C:\Program Files\Microchip\xc8\v2.41\pic\sources\c90\common\xxtofl.c"
  7411 ;; Parameters:    Size  Location     Type
  7412 ;;  sign            1    wreg     unsigned char 
  7413 ;;  val             4    2[COMMON] long 
  7414 ;; Auto vars:     Size  Location     Type
  7415 ;;  sign            1    0[BANK0 ] unsigned char 
  7416 ;;  arg             4    2[BANK0 ] unsigned long 
  7417 ;;  exp             1    1[BANK0 ] unsigned char 
  7418 ;; Return value:  Size  Location     Type
  7419 ;;                  4    2[COMMON] unsigned char 
  7420 ;; Registers used:
  7421 ;;		wreg, status,2, status,0, btemp+1
  7422 ;; Tracked objects:
  7423 ;;		On entry : 0/0
  7424 ;;		On exit  : 0/0
  7425 ;;		Unchanged: 0/0
  7426 ;; Data sizes:     COMMON   BANK0   BANK1   BANK3   BANK2
  7427 ;;      Params:         4       0       0       0       0
  7428 ;;      Locals:         0       6       0       0       0
  7429 ;;      Temps:          4       0       0       0       0
  7430 ;;      Totals:         8       6       0       0       0
  7431 ;;Total ram usage:       14 bytes
  7432 ;; Hardware stack levels used: 1
  7433 ;; Hardware stack levels required when called: 1
  7434 ;; This function calls:
  7435 ;;		Nothing
  7436 ;; This function is called by:
  7437 ;;		_function_ambiental
  7438 ;;		_log
  7439 ;; This function uses a non-reentrant model
  7440 ;;
  7441                           
  7442     1675                     ___xxtofl:	
  7443                           ;psect for function ___xxtofl
  7444                           
  7445                           
  7446                           ;incstack = 0
  7447                           ; Regs used in ___xxtofl: [wreg+status,2+status,0+btemp+1]
  7448                           ;___xxtofl@sign stored from wreg
  7449     1675  1283               	bcf	3,5	;RP0=0, select bank0
  7450     1676  1303               	bcf	3,6	;RP1=0, select bank0
  7451     1677  00A0               	movwf	___xxtofl@sign
  7452     1678                     l2743:
  7453     1678  0820               	movf	___xxtofl@sign,w
  7454     1679  1903               	btfsc	3,2
  7455     167A  2E7C               	goto	u3381
  7456     167B  2E7D               	goto	u3380
  7457     167C                     u3381:
  7458     167C  2E91               	goto	l2749
  7459     167D                     u3380:
  7460     167D                     l2745:
  7461     167D  1FF5               	btfss	___xxtofl@val+3,7
  7462     167E  2E80               	goto	u3391
  7463     167F  2E81               	goto	u3390
  7464     1680                     u3391:
  7465     1680  2E91               	goto	l2749
  7466     1681                     u3390:
  7467     1681                     l2747:
  7468     1681  0972               	comf	___xxtofl@val,w
  7469     1682  00A2               	movwf	___xxtofl@arg
  7470     1683  0973               	comf	___xxtofl@val+1,w
  7471     1684  00A3               	movwf	___xxtofl@arg+1
  7472     1685  0974               	comf	___xxtofl@val+2,w
  7473     1686  00A4               	movwf	___xxtofl@arg+2
  7474     1687  0975               	comf	___xxtofl@val+3,w
  7475     1688  00A5               	movwf	___xxtofl@arg+3
  7476     1689  0AA2               	incf	___xxtofl@arg,f
  7477     168A  1903               	skipnz
  7478     168B  0AA3               	incf	___xxtofl@arg+1,f
  7479     168C  1903               	skipnz
  7480     168D  0AA4               	incf	___xxtofl@arg+2,f
  7481     168E  1903               	skipnz
  7482     168F  0AA5               	incf	___xxtofl@arg+3,f
  7483     1690  2E99               	goto	l843
  7484     1691                     l2749:
  7485     1691  0875               	movf	___xxtofl@val+3,w
  7486     1692  00A5               	movwf	___xxtofl@arg+3
  7487     1693  0874               	movf	___xxtofl@val+2,w
  7488     1694  00A4               	movwf	___xxtofl@arg+2
  7489     1695  0873               	movf	___xxtofl@val+1,w
  7490     1696  00A3               	movwf	___xxtofl@arg+1
  7491     1697  0872               	movf	___xxtofl@val,w
  7492     1698  00A2               	movwf	___xxtofl@arg
  7493     1699                     l843:
  7494     1699  0875               	movf	___xxtofl@val+3,w
  7495     169A  0474               	iorwf	___xxtofl@val+2,w
  7496     169B  0473               	iorwf	___xxtofl@val+1,w
  7497     169C  0472               	iorwf	___xxtofl@val,w
  7498     169D  1D03               	skipz
  7499     169E  2EA0               	goto	u3401
  7500     169F  2EA1               	goto	u3400
  7501     16A0                     u3401:
  7502     16A0  2EAA               	goto	l2755
  7503     16A1                     u3400:
  7504     16A1                     l2751:
  7505     16A1  3000               	movlw	0
  7506     16A2  00F5               	movwf	?___xxtofl+3
  7507     16A3  3000               	movlw	0
  7508     16A4  00F4               	movwf	?___xxtofl+2
  7509     16A5  3000               	movlw	0
  7510     16A6  00F3               	movwf	?___xxtofl+1
  7511     16A7  3000               	movlw	0
  7512     16A8  00F2               	movwf	?___xxtofl
  7513     16A9  2F2E               	goto	l845
  7514     16AA                     l2755:
  7515     16AA  3096               	movlw	150
  7516     16AB  00A1               	movwf	___xxtofl@exp
  7517     16AC  2EBA               	goto	l2761
  7518     16AD                     l2757:
  7519     16AD  3001               	movlw	1
  7520     16AE  00FF               	movwf	btemp+1
  7521     16AF  087F               	movf	btemp+1,w
  7522     16B0  07A1               	addwf	___xxtofl@exp,f
  7523     16B1                     l2759:
  7524     16B1  3001               	movlw	1
  7525     16B2                     u3415:
  7526     16B2  1003               	clrc
  7527     16B3  0CA5               	rrf	___xxtofl@arg+3,f
  7528     16B4  0CA4               	rrf	___xxtofl@arg+2,f
  7529     16B5  0CA3               	rrf	___xxtofl@arg+1,f
  7530     16B6  0CA2               	rrf	___xxtofl@arg,f
  7531     16B7  3EFF               	addlw	-1
  7532     16B8  1D03               	skipz
  7533     16B9  2EB2               	goto	u3415
  7534     16BA                     l2761:
  7535     16BA  30FE               	movlw	254
  7536     16BB  0525               	andwf	___xxtofl@arg+3,w
  7537     16BC  1D03               	btfss	3,2
  7538     16BD  2EBF               	goto	u3421
  7539     16BE  2EC0               	goto	u3420
  7540     16BF                     u3421:
  7541     16BF  2EAD               	goto	l2757
  7542     16C0                     u3420:
  7543     16C0  2EDC               	goto	l2769
  7544     16C1                     l2763:
  7545     16C1  3001               	movlw	1
  7546     16C2  00FF               	movwf	btemp+1
  7547     16C3  087F               	movf	btemp+1,w
  7548     16C4  07A1               	addwf	___xxtofl@exp,f
  7549     16C5                     l2765:
  7550     16C5  3001               	movlw	1
  7551     16C6  07A2               	addwf	___xxtofl@arg,f
  7552     16C7  3000               	movlw	0
  7553     16C8  1803               	skipnc
  7554     16C9  3001               	movlw	1
  7555     16CA  07A3               	addwf	___xxtofl@arg+1,f
  7556     16CB  3000               	movlw	0
  7557     16CC  1803               	skipnc
  7558     16CD  3001               	movlw	1
  7559     16CE  07A4               	addwf	___xxtofl@arg+2,f
  7560     16CF  3000               	movlw	0
  7561     16D0  1803               	skipnc
  7562     16D1  3001               	movlw	1
  7563     16D2  07A5               	addwf	___xxtofl@arg+3,f
  7564     16D3                     l2767:
  7565     16D3  3001               	movlw	1
  7566     16D4                     u3435:
  7567     16D4  1003               	clrc
  7568     16D5  0CA5               	rrf	___xxtofl@arg+3,f
  7569     16D6  0CA4               	rrf	___xxtofl@arg+2,f
  7570     16D7  0CA3               	rrf	___xxtofl@arg+1,f
  7571     16D8  0CA2               	rrf	___xxtofl@arg,f
  7572     16D9  3EFF               	addlw	-1
  7573     16DA  1D03               	skipz
  7574     16DB  2ED4               	goto	u3435
  7575     16DC                     l2769:
  7576     16DC  30FF               	movlw	255
  7577     16DD  0525               	andwf	___xxtofl@arg+3,w
  7578     16DE  1D03               	btfss	3,2
  7579     16DF  2EE1               	goto	u3441
  7580     16E0  2EE2               	goto	u3440
  7581     16E1                     u3441:
  7582     16E1  2EC1               	goto	l2763
  7583     16E2                     u3440:
  7584     16E2  2EEE               	goto	l2773
  7585     16E3                     l2771:
  7586     16E3  3001               	movlw	1
  7587     16E4  02A1               	subwf	___xxtofl@exp,f
  7588     16E5  3001               	movlw	1
  7589     16E6  00F6               	movwf	??___xxtofl
  7590     16E7                     u3455:
  7591     16E7  1003               	clrc
  7592     16E8  0DA2               	rlf	___xxtofl@arg,f
  7593     16E9  0DA3               	rlf	___xxtofl@arg+1,f
  7594     16EA  0DA4               	rlf	___xxtofl@arg+2,f
  7595     16EB  0DA5               	rlf	___xxtofl@arg+3,f
  7596     16EC  0BF6               	decfsz	??___xxtofl,f
  7597     16ED  2EE7               	goto	u3455
  7598     16EE                     l2773:
  7599     16EE  1BA4               	btfsc	___xxtofl@arg+2,7
  7600     16EF  2EF1               	goto	u3461
  7601     16F0  2EF2               	goto	u3460
  7602     16F1                     u3461:
  7603     16F1  2EF8               	goto	l856
  7604     16F2                     u3460:
  7605     16F2                     l2775:
  7606     16F2  3002               	movlw	2
  7607     16F3  0221               	subwf	___xxtofl@exp,w
  7608     16F4  1803               	skipnc
  7609     16F5  2EF7               	goto	u3471
  7610     16F6  2EF8               	goto	u3470
  7611     16F7                     u3471:
  7612     16F7  2EE3               	goto	l2771
  7613     16F8                     u3470:
  7614     16F8                     l856:
  7615     16F8  1821               	btfsc	___xxtofl@exp,0
  7616     16F9  2EFB               	goto	u3481
  7617     16FA  2EFC               	goto	u3480
  7618     16FB                     u3481:
  7619     16FB  2F04               	goto	l857
  7620     16FC                     u3480:
  7621     16FC                     l2777:
  7622     16FC  30FF               	movlw	255
  7623     16FD  05A2               	andwf	___xxtofl@arg,f
  7624     16FE  30FF               	movlw	255
  7625     16FF  05A3               	andwf	___xxtofl@arg+1,f
  7626     1700  307F               	movlw	127
  7627     1701  05A4               	andwf	___xxtofl@arg+2,f
  7628     1702  30FF               	movlw	255
  7629     1703  05A5               	andwf	___xxtofl@arg+3,f
  7630     1704                     l857:
  7631     1704  1003               	clrc
  7632     1705  0CA1               	rrf	___xxtofl@exp,f
  7633     1706                     l2779:
  7634     1706  0821               	movf	___xxtofl@exp,w
  7635     1707  00F6               	movwf	??___xxtofl
  7636     1708  01F7               	clrf	??___xxtofl+1
  7637     1709  01F8               	clrf	??___xxtofl+2
  7638     170A  01F9               	clrf	??___xxtofl+3
  7639     170B  3018               	movlw	24
  7640     170C                     u3495:
  7641     170C  1003               	clrc
  7642     170D  0DF6               	rlf	??___xxtofl,f
  7643     170E  0DF7               	rlf	??___xxtofl+1,f
  7644     170F  0DF8               	rlf	??___xxtofl+2,f
  7645     1710  0DF9               	rlf	??___xxtofl+3,f
  7646     1711                     u3490:
  7647     1711  3EFF               	addlw	-1
  7648     1712  1D03               	skipz
  7649     1713  2F0C               	goto	u3495
  7650     1714  0876               	movf	??___xxtofl,w
  7651     1715  04A2               	iorwf	___xxtofl@arg,f
  7652     1716  0877               	movf	??___xxtofl+1,w
  7653     1717  04A3               	iorwf	___xxtofl@arg+1,f
  7654     1718  0878               	movf	??___xxtofl+2,w
  7655     1719  04A4               	iorwf	___xxtofl@arg+2,f
  7656     171A  0879               	movf	??___xxtofl+3,w
  7657     171B  04A5               	iorwf	___xxtofl@arg+3,f
  7658     171C                     l2781:
  7659     171C  0820               	movf	___xxtofl@sign,w
  7660     171D  1903               	btfsc	3,2
  7661     171E  2F20               	goto	u3501
  7662     171F  2F21               	goto	u3500
  7663     1720                     u3501:
  7664     1720  2F26               	goto	l2787
  7665     1721                     u3500:
  7666     1721                     l2783:
  7667     1721  1FF5               	btfss	___xxtofl@val+3,7
  7668     1722  2F24               	goto	u3511
  7669     1723  2F25               	goto	u3510
  7670     1724                     u3511:
  7671     1724  2F26               	goto	l2787
  7672     1725                     u3510:
  7673     1725                     l2785:
  7674     1725  17A5               	bsf	___xxtofl@arg+3,7
  7675     1726                     l2787:
  7676     1726  0825               	movf	___xxtofl@arg+3,w
  7677     1727  00F5               	movwf	?___xxtofl+3
  7678     1728  0824               	movf	___xxtofl@arg+2,w
  7679     1729  00F4               	movwf	?___xxtofl+2
  7680     172A  0823               	movf	___xxtofl@arg+1,w
  7681     172B  00F3               	movwf	?___xxtofl+1
  7682     172C  0822               	movf	___xxtofl@arg,w
  7683     172D  00F2               	movwf	?___xxtofl
  7684     172E                     l845:
  7685     172E  0008               	return
  7686     172F                     __end_of___xxtofl:
  7687                           
  7688                           	psect	text21
  7689     15D1                     __ptext21:	
  7690 ;; *************** function ___flge *****************
  7691 ;; Defined at:
  7692 ;;		line 4 in file "C:\Program Files\Microchip\xc8\v2.41\pic\sources\c90\common\flge.c"
  7693 ;; Parameters:    Size  Location     Type
  7694 ;;  ff1             4    2[COMMON] unsigned char 
  7695 ;;  ff2             4    6[COMMON] unsigned char 
  7696 ;; Auto vars:     Size  Location     Type
  7697 ;;		None
  7698 ;; Return value:  Size  Location     Type
  7699 ;;		None               void
  7700 ;; Registers used:
  7701 ;;		wreg, status,2, status,0
  7702 ;; Tracked objects:
  7703 ;;		On entry : 0/0
  7704 ;;		On exit  : 0/0
  7705 ;;		Unchanged: 0/0
  7706 ;; Data sizes:     COMMON   BANK0   BANK1   BANK3   BANK2
  7707 ;;      Params:         8       0       0       0       0
  7708 ;;      Locals:         0       0       0       0       0
  7709 ;;      Temps:          0       4       0       0       0
  7710 ;;      Totals:         8       4       0       0       0
  7711 ;;Total ram usage:       12 bytes
  7712 ;; Hardware stack levels used: 1
  7713 ;; Hardware stack levels required when called: 1
  7714 ;; This function calls:
  7715 ;;		Nothing
  7716 ;; This function is called by:
  7717 ;;		_log
  7718 ;; This function uses a non-reentrant model
  7719 ;;
  7720                           
  7721     15D1                     ___flge:	
  7722                           ;psect for function ___flge
  7723                           
  7724     15D1                     l2675:	
  7725                           ;incstack = 0
  7726                           ; Regs used in ___flge: [wreg+status,2+status,0]
  7727                           
  7728     15D1  3000               	movlw	0
  7729     15D2  0572               	andwf	___flge@ff1,w
  7730     15D3  1283               	bcf	3,5	;RP0=0, select bank0
  7731     15D4  1303               	bcf	3,6	;RP1=0, select bank0
  7732     15D5  00A0               	movwf	??___flge
  7733     15D6  3000               	movlw	0
  7734     15D7  0573               	andwf	___flge@ff1+1,w
  7735     15D8  00A1               	movwf	??___flge+1
  7736     15D9  3080               	movlw	128
  7737     15DA  0574               	andwf	___flge@ff1+2,w
  7738     15DB  00A2               	movwf	??___flge+2
  7739     15DC  307F               	movlw	127
  7740     15DD  0575               	andwf	___flge@ff1+3,w
  7741     15DE  00A3               	movwf	??___flge+3
  7742     15DF  0823               	movf	??___flge+3,w
  7743     15E0  0422               	iorwf	??___flge+2,w
  7744     15E1  0421               	iorwf	??___flge+1,w
  7745     15E2  0420               	iorwf	??___flge,w
  7746     15E3  1D03               	skipz
  7747     15E4  2DE6               	goto	u3181
  7748     15E5  2DE7               	goto	u3180
  7749     15E6                     u3181:
  7750     15E6  2DEF               	goto	l584
  7751     15E7                     u3180:
  7752     15E7                     l2677:
  7753     15E7  3000               	movlw	0
  7754     15E8  00F5               	movwf	___flge@ff1+3
  7755     15E9  3000               	movlw	0
  7756     15EA  00F4               	movwf	___flge@ff1+2
  7757     15EB  3000               	movlw	0
  7758     15EC  00F3               	movwf	___flge@ff1+1
  7759     15ED  3000               	movlw	0
  7760     15EE  00F2               	movwf	___flge@ff1
  7761     15EF                     l584:
  7762     15EF  3000               	movlw	0
  7763     15F0  0576               	andwf	___flge@ff2,w
  7764     15F1  00A0               	movwf	??___flge
  7765     15F2  3000               	movlw	0
  7766     15F3  0577               	andwf	___flge@ff2+1,w
  7767     15F4  00A1               	movwf	??___flge+1
  7768     15F5  3080               	movlw	128
  7769     15F6  0578               	andwf	___flge@ff2+2,w
  7770     15F7  00A2               	movwf	??___flge+2
  7771     15F8  307F               	movlw	127
  7772     15F9  0579               	andwf	___flge@ff2+3,w
  7773     15FA  00A3               	movwf	??___flge+3
  7774     15FB  0823               	movf	??___flge+3,w
  7775     15FC  0422               	iorwf	??___flge+2,w
  7776     15FD  0421               	iorwf	??___flge+1,w
  7777     15FE  0420               	iorwf	??___flge,w
  7778     15FF  1D03               	skipz
  7779     1600  2E02               	goto	u3191
  7780     1601  2E03               	goto	u3190
  7781     1602                     u3191:
  7782     1602  2E0B               	goto	l2681
  7783     1603                     u3190:
  7784     1603                     l2679:
  7785     1603  3000               	movlw	0
  7786     1604  00F9               	movwf	___flge@ff2+3
  7787     1605  3000               	movlw	0
  7788     1606  00F8               	movwf	___flge@ff2+2
  7789     1607  3000               	movlw	0
  7790     1608  00F7               	movwf	___flge@ff2+1
  7791     1609  3000               	movlw	0
  7792     160A  00F6               	movwf	___flge@ff2
  7793     160B                     l2681:
  7794     160B  1FF5               	btfss	___flge@ff1+3,7
  7795     160C  2E0E               	goto	u3201
  7796     160D  2E0F               	goto	u3200
  7797     160E                     u3201:
  7798     160E  2E33               	goto	l2685
  7799     160F                     u3200:
  7800     160F                     l2683:
  7801     160F  3000               	movlw	0
  7802     1610  00A0               	movwf	??___flge
  7803     1611  3000               	movlw	0
  7804     1612  00A1               	movwf	??___flge+1
  7805     1613  3000               	movlw	0
  7806     1614  00A2               	movwf	??___flge+2
  7807     1615  3080               	movlw	128
  7808     1616  00A3               	movwf	??___flge+3
  7809     1617  0872               	movf	___flge@ff1,w
  7810     1618  02A0               	subwf	??___flge,f
  7811     1619  0873               	movf	___flge@ff1+1,w
  7812     161A  1C03               	skipc
  7813     161B  0F73               	incfsz	___flge@ff1+1,w
  7814     161C  2E1E               	goto	u3211
  7815     161D  2E1F               	goto	u3212
  7816     161E                     u3211:
  7817     161E  02A1               	subwf	??___flge+1,f
  7818     161F                     u3212:
  7819     161F  0874               	movf	___flge@ff1+2,w
  7820     1620  1C03               	skipc
  7821     1621  0F74               	incfsz	___flge@ff1+2,w
  7822     1622  2E24               	goto	u3213
  7823     1623  2E25               	goto	u3214
  7824     1624                     u3213:
  7825     1624  02A2               	subwf	??___flge+2,f
  7826     1625                     u3214:
  7827     1625  0875               	movf	___flge@ff1+3,w
  7828     1626  1C03               	skipc
  7829     1627  0F75               	incfsz	___flge@ff1+3,w
  7830     1628  2E2A               	goto	u3215
  7831     1629  2E2B               	goto	u3216
  7832     162A                     u3215:
  7833     162A  02A3               	subwf	??___flge+3,f
  7834     162B                     u3216:
  7835     162B  0823               	movf	??___flge+3,w
  7836     162C  00F5               	movwf	___flge@ff1+3
  7837     162D  0822               	movf	??___flge+2,w
  7838     162E  00F4               	movwf	___flge@ff1+2
  7839     162F  0821               	movf	??___flge+1,w
  7840     1630  00F3               	movwf	___flge@ff1+1
  7841     1631  0820               	movf	??___flge,w
  7842     1632  00F2               	movwf	___flge@ff1
  7843     1633                     l2685:
  7844     1633  1FF9               	btfss	___flge@ff2+3,7
  7845     1634  2E36               	goto	u3221
  7846     1635  2E37               	goto	u3220
  7847     1636                     u3221:
  7848     1636  2E5B               	goto	l587
  7849     1637                     u3220:
  7850     1637                     l2687:
  7851     1637  3000               	movlw	0
  7852     1638  00A0               	movwf	??___flge
  7853     1639  3000               	movlw	0
  7854     163A  00A1               	movwf	??___flge+1
  7855     163B  3000               	movlw	0
  7856     163C  00A2               	movwf	??___flge+2
  7857     163D  3080               	movlw	128
  7858     163E  00A3               	movwf	??___flge+3
  7859     163F  0876               	movf	___flge@ff2,w
  7860     1640  02A0               	subwf	??___flge,f
  7861     1641  0877               	movf	___flge@ff2+1,w
  7862     1642  1C03               	skipc
  7863     1643  0F77               	incfsz	___flge@ff2+1,w
  7864     1644  2E46               	goto	u3231
  7865     1645  2E47               	goto	u3232
  7866     1646                     u3231:
  7867     1646  02A1               	subwf	??___flge+1,f
  7868     1647                     u3232:
  7869     1647  0878               	movf	___flge@ff2+2,w
  7870     1648  1C03               	skipc
  7871     1649  0F78               	incfsz	___flge@ff2+2,w
  7872     164A  2E4C               	goto	u3233
  7873     164B  2E4D               	goto	u3234
  7874     164C                     u3233:
  7875     164C  02A2               	subwf	??___flge+2,f
  7876     164D                     u3234:
  7877     164D  0879               	movf	___flge@ff2+3,w
  7878     164E  1C03               	skipc
  7879     164F  0F79               	incfsz	___flge@ff2+3,w
  7880     1650  2E52               	goto	u3235
  7881     1651  2E53               	goto	u3236
  7882     1652                     u3235:
  7883     1652  02A3               	subwf	??___flge+3,f
  7884     1653                     u3236:
  7885     1653  0823               	movf	??___flge+3,w
  7886     1654  00F9               	movwf	___flge@ff2+3
  7887     1655  0822               	movf	??___flge+2,w
  7888     1656  00F8               	movwf	___flge@ff2+2
  7889     1657  0821               	movf	??___flge+1,w
  7890     1658  00F7               	movwf	___flge@ff2+1
  7891     1659  0820               	movf	??___flge,w
  7892     165A  00F6               	movwf	___flge@ff2
  7893     165B                     l587:
  7894     165B  3080               	movlw	128
  7895     165C  06F5               	xorwf	___flge@ff1+3,f
  7896     165D  3080               	movlw	128
  7897     165E  06F9               	xorwf	___flge@ff2+3,f
  7898     165F  0879               	movf	___flge@ff2+3,w
  7899     1660  0275               	subwf	___flge@ff1+3,w
  7900     1661  1D03               	skipz
  7901     1662  2E6D               	goto	u3245
  7902     1663  0878               	movf	___flge@ff2+2,w
  7903     1664  0274               	subwf	___flge@ff1+2,w
  7904     1665  1D03               	skipz
  7905     1666  2E6D               	goto	u3245
  7906     1667  0877               	movf	___flge@ff2+1,w
  7907     1668  0273               	subwf	___flge@ff1+1,w
  7908     1669  1D03               	skipz
  7909     166A  2E6D               	goto	u3245
  7910     166B  0876               	movf	___flge@ff2,w
  7911     166C  0272               	subwf	___flge@ff1,w
  7912     166D                     u3245:
  7913     166D  1803               	skipnc
  7914     166E  2E70               	goto	u3241
  7915     166F  2E71               	goto	u3240
  7916     1670                     u3241:
  7917     1670  2E73               	goto	l2691
  7918     1671                     u3240:
  7919     1671                     l2689:
  7920     1671  1003               	clrc
  7921     1672  2E74               	goto	l588
  7922     1673                     l2691:
  7923     1673  1403               	setc
  7924     1674                     l588:
  7925     1674  0008               	return
  7926     1675                     __end_of___flge:
  7927                           
  7928                           	psect	text22
  7929     14D9                     __ptext22:	
  7930 ;; *************** function ___fltol *****************
  7931 ;; Defined at:
  7932 ;;		line 43 in file "C:\Program Files\Microchip\xc8\v2.41\pic\sources\c90\common\fltol.c"
  7933 ;; Parameters:    Size  Location     Type
  7934 ;;  f1              4   26[BANK1 ] unsigned char 
  7935 ;; Auto vars:     Size  Location     Type
  7936 ;;  exp1            1   35[BANK1 ] unsigned char 
  7937 ;;  sign1           1   34[BANK1 ] unsigned char 
  7938 ;; Return value:  Size  Location     Type
  7939 ;;                  4   26[BANK1 ] long 
  7940 ;; Registers used:
  7941 ;;		wreg, status,2, status,0, btemp+1
  7942 ;; Tracked objects:
  7943 ;;		On entry : 0/0
  7944 ;;		On exit  : 0/0
  7945 ;;		Unchanged: 0/0
  7946 ;; Data sizes:     COMMON   BANK0   BANK1   BANK3   BANK2
  7947 ;;      Params:         0       0       4       0       0
  7948 ;;      Locals:         0       0       2       0       0
  7949 ;;      Temps:          0       0       4       0       0
  7950 ;;      Totals:         0       0      10       0       0
  7951 ;;Total ram usage:       10 bytes
  7952 ;; Hardware stack levels used: 1
  7953 ;; Hardware stack levels required when called: 1
  7954 ;; This function calls:
  7955 ;;		Nothing
  7956 ;; This function is called by:
  7957 ;;		_function_ambiental
  7958 ;; This function uses a non-reentrant model
  7959 ;;
  7960                           
  7961     14D9                     ___fltol:	
  7962                           ;psect for function ___fltol
  7963                           
  7964     14D9                     l3071:	
  7965                           ;incstack = 0
  7966                           ; Regs used in ___fltol: [wreg+status,2+status,0+btemp+1]
  7967                           
  7968     14D9  1003               	clrc
  7969     14DA  1683               	bsf	3,5	;RP0=1, select bank1
  7970     14DB  1303               	bcf	3,6	;RP1=0, select bank1
  7971     14DC  0D3C               	rlf	(___fltol@f1+2)^(0+128),w
  7972     14DD  0D3D               	rlf	(___fltol@f1+3)^(0+128),w
  7973     14DE  00C3               	movwf	___fltol@exp1^(0+128)
  7974     14DF  0843               	movf	___fltol@exp1^(0+128),w
  7975     14E0  1D03               	btfss	3,2
  7976     14E1  2CE3               	goto	u3981
  7977     14E2  2CE4               	goto	u3980
  7978     14E3                     u3981:
  7979     14E3  2CED               	goto	l3077
  7980     14E4                     u3980:
  7981     14E4                     l3073:
  7982     14E4  3000               	movlw	0
  7983     14E5  00BD               	movwf	(?___fltol+3)^(0+128)
  7984     14E6  3000               	movlw	0
  7985     14E7  00BC               	movwf	(?___fltol+2)^(0+128)
  7986     14E8  3000               	movlw	0
  7987     14E9  00BB               	movwf	(?___fltol+1)^(0+128)
  7988     14EA  3000               	movlw	0
  7989     14EB  00BA               	movwf	?___fltol^(0+128)
  7990     14EC  2D50               	goto	l596
  7991     14ED                     l3077:
  7992     14ED  083A               	movf	___fltol@f1^(0+128),w
  7993     14EE  00BE               	movwf	??___fltol^(0+128)
  7994     14EF  083B               	movf	(___fltol@f1+1)^(0+128),w
  7995     14F0  00BF               	movwf	(??___fltol^(0+128)+1)
  7996     14F1  083C               	movf	(___fltol@f1+2)^(0+128),w
  7997     14F2  00C0               	movwf	(??___fltol^(0+128)+2)
  7998     14F3  083D               	movf	(___fltol@f1+3)^(0+128),w
  7999     14F4  00C1               	movwf	(??___fltol^(0+128)+3)
  8000     14F5  301F               	movlw	31
  8001     14F6                     u3995:
  8002     14F6  1003               	clrc
  8003     14F7  0CC1               	rrf	(??___fltol^(0+128)+3),f
  8004     14F8  0CC0               	rrf	(??___fltol^(0+128)+2),f
  8005     14F9  0CBF               	rrf	(??___fltol^(0+128)+1),f
  8006     14FA  0CBE               	rrf	??___fltol^(0+128),f
  8007     14FB                     u3990:
  8008     14FB  3EFF               	addlw	-1
  8009     14FC  1D03               	skipz
  8010     14FD  2CF6               	goto	u3995
  8011     14FE  083E               	movf	??___fltol^(0+128),w
  8012     14FF  00C2               	movwf	___fltol@sign1^(0+128)
  8013     1500                     l3079:
  8014     1500  17BC               	bsf	(___fltol@f1^(0+128)+2),7
  8015     1501                     l3081:
  8016     1501  30FF               	movlw	255
  8017     1502  05BA               	andwf	___fltol@f1^(0+128),f
  8018     1503  30FF               	movlw	255
  8019     1504  05BB               	andwf	(___fltol@f1+1)^(0+128),f
  8020     1505  30FF               	movlw	255
  8021     1506  05BC               	andwf	(___fltol@f1+2)^(0+128),f
  8022     1507  3000               	movlw	0
  8023     1508  05BD               	andwf	(___fltol@f1+3)^(0+128),f
  8024     1509                     l3083:
  8025     1509  3096               	movlw	150
  8026     150A  02C3               	subwf	___fltol@exp1^(0+128),f
  8027     150B                     l3085:
  8028     150B  1FC3               	btfss	___fltol@exp1^(0+128),7
  8029     150C  2D0E               	goto	u4001
  8030     150D  2D0F               	goto	u4000
  8031     150E                     u4001:
  8032     150E  2D29               	goto	l3097
  8033     150F                     u4000:
  8034     150F                     l3087:
  8035     150F  0843               	movf	___fltol@exp1^(0+128),w
  8036     1510  3A80               	xorlw	128
  8037     1511  3E97               	addlw	151
  8038     1512  1803               	skipnc
  8039     1513  2D15               	goto	u4011
  8040     1514  2D16               	goto	u4010
  8041     1515                     u4011:
  8042     1515  2D17               	goto	l3093
  8043     1516                     u4010:
  8044     1516  2CE4               	goto	l3073
  8045     1517                     l3093:
  8046     1517  3001               	movlw	1
  8047     1518                     u4025:
  8048     1518  1003               	clrc
  8049     1519  0CBD               	rrf	(___fltol@f1+3)^(0+128),f
  8050     151A  0CBC               	rrf	(___fltol@f1+2)^(0+128),f
  8051     151B  0CBB               	rrf	(___fltol@f1+1)^(0+128),f
  8052     151C  0CBA               	rrf	___fltol@f1^(0+128),f
  8053     151D  3EFF               	addlw	-1
  8054     151E  1D03               	skipz
  8055     151F  2D18               	goto	u4025
  8056     1520                     l3095:
  8057     1520  3001               	movlw	1
  8058     1521  00FF               	movwf	btemp+1
  8059     1522  087F               	movf	btemp+1,w
  8060     1523  07C3               	addwf	___fltol@exp1^(0+128),f
  8061     1524  1D03               	btfss	3,2
  8062     1525  2D27               	goto	u4031
  8063     1526  2D28               	goto	u4030
  8064     1527                     u4031:
  8065     1527  2D17               	goto	l3093
  8066     1528                     u4030:
  8067     1528  2D40               	goto	l3105
  8068     1529                     l3097:
  8069     1529  3020               	movlw	32
  8070     152A  0243               	subwf	___fltol@exp1^(0+128),w
  8071     152B  1C03               	skipc
  8072     152C  2D2E               	goto	u4041
  8073     152D  2D2F               	goto	u4040
  8074     152E                     u4041:
  8075     152E  2D3B               	goto	l603
  8076     152F                     u4040:
  8077     152F  2CE4               	goto	l3073
  8078     1530                     l3103:
  8079     1530  3001               	movlw	1
  8080     1531  00BE               	movwf	??___fltol^(0+128)
  8081     1532                     u4055:
  8082     1532  1003               	clrc
  8083     1533  0DBA               	rlf	___fltol@f1^(0+128),f
  8084     1534  0DBB               	rlf	(___fltol@f1+1)^(0+128),f
  8085     1535  0DBC               	rlf	(___fltol@f1+2)^(0+128),f
  8086     1536  0DBD               	rlf	(___fltol@f1+3)^(0+128),f
  8087     1537  0BBE               	decfsz	??___fltol^(0+128),f
  8088     1538  2D32               	goto	u4055
  8089     1539  3001               	movlw	1
  8090     153A  02C3               	subwf	___fltol@exp1^(0+128),f
  8091     153B                     l603:
  8092     153B  0843               	movf	___fltol@exp1^(0+128),w
  8093     153C  1D03               	btfss	3,2
  8094     153D  2D3F               	goto	u4061
  8095     153E  2D40               	goto	u4060
  8096     153F                     u4061:
  8097     153F  2D30               	goto	l3103
  8098     1540                     u4060:
  8099     1540                     l3105:
  8100     1540  0842               	movf	___fltol@sign1^(0+128),w
  8101     1541  1903               	btfsc	3,2
  8102     1542  2D44               	goto	u4071
  8103     1543  2D45               	goto	u4070
  8104     1544                     u4071:
  8105     1544  2D50               	goto	l606
  8106     1545                     u4070:
  8107     1545                     l3107:
  8108     1545  09BA               	comf	___fltol@f1^(0+128),f
  8109     1546  09BB               	comf	(___fltol@f1+1)^(0+128),f
  8110     1547  09BC               	comf	(___fltol@f1+2)^(0+128),f
  8111     1548  09BD               	comf	(___fltol@f1+3)^(0+128),f
  8112     1549  0ABA               	incf	___fltol@f1^(0+128),f
  8113     154A  1903               	skipnz
  8114     154B  0ABB               	incf	(___fltol@f1+1)^(0+128),f
  8115     154C  1903               	skipnz
  8116     154D  0ABC               	incf	(___fltol@f1+2)^(0+128),f
  8117     154E  1903               	skipnz
  8118     154F  0ABD               	incf	(___fltol@f1+3)^(0+128),f
  8119     1550                     l606:
  8120     1550                     l596:
  8121     1550  0008               	return
  8122     1551                     __end_of___fltol:
  8123                           
  8124                           	psect	text23
  8125     0C22                     __ptext23:	
  8126 ;; *************** function ___fldiv *****************
  8127 ;; Defined at:
  8128 ;;		line 8 in file "C:\Program Files\Microchip\xc8\v2.41\pic\sources\c90\common\sprcdiv.c"
  8129 ;; Parameters:    Size  Location     Type
  8130 ;;  a               4   37[BANK0 ] long 
  8131 ;;  b               4   41[BANK0 ] long 
  8132 ;; Auto vars:     Size  Location     Type
  8133 ;;  grs             4   57[BANK0 ] unsigned long 
  8134 ;;  rem             4   50[BANK0 ] unsigned long 
  8135 ;;  new_exp         2   55[BANK0 ] int 
  8136 ;;  aexp            1   62[BANK0 ] unsigned char 
  8137 ;;  bexp            1   61[BANK0 ] unsigned char 
  8138 ;;  sign            1   54[BANK0 ] unsigned char 
  8139 ;; Return value:  Size  Location     Type
  8140 ;;                  4   37[BANK0 ] unsigned char 
  8141 ;; Registers used:
  8142 ;;		wreg, status,2, status,0, btemp+1
  8143 ;; Tracked objects:
  8144 ;;		On entry : 0/0
  8145 ;;		On exit  : 0/0
  8146 ;;		Unchanged: 0/0
  8147 ;; Data sizes:     COMMON   BANK0   BANK1   BANK3   BANK2
  8148 ;;      Params:         0       8       0       0       0
  8149 ;;      Locals:         0      13       0       0       0
  8150 ;;      Temps:          0       5       0       0       0
  8151 ;;      Totals:         0      26       0       0       0
  8152 ;;Total ram usage:       26 bytes
  8153 ;; Hardware stack levels used: 1
  8154 ;; Hardware stack levels required when called: 1
  8155 ;; This function calls:
  8156 ;;		Nothing
  8157 ;; This function is called by:
  8158 ;;		_function_ambiental
  8159 ;; This function uses a non-reentrant model
  8160 ;;
  8161                           
  8162     0C22                     ___fldiv:	
  8163                           ;psect for function ___fldiv
  8164                           
  8165     0C22                     l3109:	
  8166                           ;incstack = 0
  8167                           ; Regs used in ___fldiv: [wreg+status,2+status,0+btemp+1]
  8168                           
  8169     0C22  1283               	bcf	3,5	;RP0=0, select bank0
  8170     0C23  1303               	bcf	3,6	;RP1=0, select bank0
  8171     0C24  084C               	movf	___fldiv@b+3,w
  8172     0C25  3980               	andlw	128
  8173     0C26  00D6               	movwf	___fldiv@sign
  8174     0C27                     l3111:
  8175     0C27  084C               	movf	___fldiv@b+3,w
  8176     0C28  00CD               	movwf	??___fldiv
  8177     0C29  074D               	addwf	??___fldiv,w
  8178     0C2A  00DD               	movwf	___fldiv@bexp
  8179     0C2B                     l3113:
  8180     0C2B  1FCB               	btfss	___fldiv@b+2,7
  8181     0C2C  2C2E               	goto	u4081
  8182     0C2D  2C2F               	goto	u4080
  8183     0C2E                     u4081:
  8184     0C2E  2C30               	goto	l3117
  8185     0C2F                     u4080:
  8186     0C2F                     l3115:
  8187     0C2F  145D               	bsf	___fldiv@bexp,0
  8188     0C30                     l3117:
  8189     0C30  085D               	movf	___fldiv@bexp,w
  8190     0C31  1903               	btfsc	3,2
  8191     0C32  2C34               	goto	u4091
  8192     0C33  2C35               	goto	u4090
  8193     0C34                     u4091:
  8194     0C34  2C45               	goto	l3127
  8195     0C35                     u4090:
  8196     0C35                     l3119:
  8197     0C35  0A5D               	incf	___fldiv@bexp,w
  8198     0C36  1D03               	btfss	3,2
  8199     0C37  2C39               	goto	u4101
  8200     0C38  2C3A               	goto	u4100
  8201     0C39                     u4101:
  8202     0C39  2C42               	goto	l3123
  8203     0C3A                     u4100:
  8204     0C3A                     l3121:
  8205     0C3A  3000               	movlw	0
  8206     0C3B  00CC               	movwf	___fldiv@b+3
  8207     0C3C  3000               	movlw	0
  8208     0C3D  00CB               	movwf	___fldiv@b+2
  8209     0C3E  3000               	movlw	0
  8210     0C3F  00CA               	movwf	___fldiv@b+1
  8211     0C40  3000               	movlw	0
  8212     0C41  00C9               	movwf	___fldiv@b
  8213     0C42                     l3123:
  8214     0C42  17CB               	bsf	___fldiv@b+2,7
  8215     0C43                     l3125:
  8216     0C43  01CC               	clrf	___fldiv@b+3
  8217     0C44  2C4D               	goto	l3129
  8218     0C45                     l3127:
  8219     0C45  3000               	movlw	0
  8220     0C46  00CC               	movwf	___fldiv@b+3
  8221     0C47  3000               	movlw	0
  8222     0C48  00CB               	movwf	___fldiv@b+2
  8223     0C49  3000               	movlw	0
  8224     0C4A  00CA               	movwf	___fldiv@b+1
  8225     0C4B  3000               	movlw	0
  8226     0C4C  00C9               	movwf	___fldiv@b
  8227     0C4D                     l3129:
  8228     0C4D  0848               	movf	___fldiv@a+3,w
  8229     0C4E  3980               	andlw	128
  8230     0C4F  00FF               	movwf	btemp+1
  8231     0C50  087F               	movf	btemp+1,w
  8232     0C51  06D6               	xorwf	___fldiv@sign,f
  8233     0C52                     l3131:
  8234     0C52  0848               	movf	___fldiv@a+3,w
  8235     0C53  00CD               	movwf	??___fldiv
  8236     0C54  074D               	addwf	??___fldiv,w
  8237     0C55  00DE               	movwf	___fldiv@aexp
  8238     0C56                     l3133:
  8239     0C56  1FC7               	btfss	___fldiv@a+2,7
  8240     0C57  2C59               	goto	u4111
  8241     0C58  2C5A               	goto	u4110
  8242     0C59                     u4111:
  8243     0C59  2C5B               	goto	l3137
  8244     0C5A                     u4110:
  8245     0C5A                     l3135:
  8246     0C5A  145E               	bsf	___fldiv@aexp,0
  8247     0C5B                     l3137:
  8248     0C5B  085E               	movf	___fldiv@aexp,w
  8249     0C5C  1903               	btfsc	3,2
  8250     0C5D  2C5F               	goto	u4121
  8251     0C5E  2C60               	goto	u4120
  8252     0C5F                     u4121:
  8253     0C5F  2C70               	goto	l3147
  8254     0C60                     u4120:
  8255     0C60                     l3139:
  8256     0C60  0A5E               	incf	___fldiv@aexp,w
  8257     0C61  1D03               	btfss	3,2
  8258     0C62  2C64               	goto	u4131
  8259     0C63  2C65               	goto	u4130
  8260     0C64                     u4131:
  8261     0C64  2C6D               	goto	l3143
  8262     0C65                     u4130:
  8263     0C65                     l3141:
  8264     0C65  3000               	movlw	0
  8265     0C66  00C8               	movwf	___fldiv@a+3
  8266     0C67  3000               	movlw	0
  8267     0C68  00C7               	movwf	___fldiv@a+2
  8268     0C69  3000               	movlw	0
  8269     0C6A  00C6               	movwf	___fldiv@a+1
  8270     0C6B  3000               	movlw	0
  8271     0C6C  00C5               	movwf	___fldiv@a
  8272     0C6D                     l3143:
  8273     0C6D  17C7               	bsf	___fldiv@a+2,7
  8274     0C6E                     l3145:
  8275     0C6E  01C8               	clrf	___fldiv@a+3
  8276     0C6F  2C78               	goto	l759
  8277     0C70                     l3147:
  8278     0C70  3000               	movlw	0
  8279     0C71  00C8               	movwf	___fldiv@a+3
  8280     0C72  3000               	movlw	0
  8281     0C73  00C7               	movwf	___fldiv@a+2
  8282     0C74  3000               	movlw	0
  8283     0C75  00C6               	movwf	___fldiv@a+1
  8284     0C76  3000               	movlw	0
  8285     0C77  00C5               	movwf	___fldiv@a
  8286     0C78                     l759:
  8287     0C78  0848               	movf	___fldiv@a+3,w
  8288     0C79  0447               	iorwf	___fldiv@a+2,w
  8289     0C7A  0446               	iorwf	___fldiv@a+1,w
  8290     0C7B  0445               	iorwf	___fldiv@a,w
  8291     0C7C  1D03               	skipz
  8292     0C7D  2C7F               	goto	u4141
  8293     0C7E  2C80               	goto	u4140
  8294     0C7F                     u4141:
  8295     0C7F  2C99               	goto	l3157
  8296     0C80                     u4140:
  8297     0C80                     l3149:
  8298     0C80  3000               	movlw	0
  8299     0C81  00CC               	movwf	___fldiv@b+3
  8300     0C82  3000               	movlw	0
  8301     0C83  00CB               	movwf	___fldiv@b+2
  8302     0C84  3000               	movlw	0
  8303     0C85  00CA               	movwf	___fldiv@b+1
  8304     0C86  3000               	movlw	0
  8305     0C87  00C9               	movwf	___fldiv@b
  8306     0C88  3080               	movlw	128
  8307     0C89  04CB               	iorwf	___fldiv@b+2,f
  8308     0C8A  307F               	movlw	127
  8309     0C8B  04CC               	iorwf	___fldiv@b+3,f
  8310     0C8C                     l3151:
  8311     0C8C  0856               	movf	___fldiv@sign,w
  8312     0C8D  00FF               	movwf	btemp+1
  8313     0C8E  087F               	movf	btemp+1,w
  8314     0C8F  04CC               	iorwf	___fldiv@b+3,f
  8315     0C90                     l3153:
  8316     0C90  084C               	movf	___fldiv@b+3,w
  8317     0C91  00C8               	movwf	?___fldiv+3
  8318     0C92  084B               	movf	___fldiv@b+2,w
  8319     0C93  00C7               	movwf	?___fldiv+2
  8320     0C94  084A               	movf	___fldiv@b+1,w
  8321     0C95  00C6               	movwf	?___fldiv+1
  8322     0C96  0849               	movf	___fldiv@b,w
  8323     0C97  00C5               	movwf	?___fldiv
  8324     0C98  2DF0               	goto	l761
  8325     0C99                     l3157:
  8326     0C99  085D               	movf	___fldiv@bexp,w
  8327     0C9A  1D03               	btfss	3,2
  8328     0C9B  2C9D               	goto	u4151
  8329     0C9C  2C9E               	goto	u4150
  8330     0C9D                     u4151:
  8331     0C9D  2CA7               	goto	l3163
  8332     0C9E                     u4150:
  8333     0C9E                     l3159:
  8334     0C9E  3000               	movlw	0
  8335     0C9F  00C8               	movwf	?___fldiv+3
  8336     0CA0  3000               	movlw	0
  8337     0CA1  00C7               	movwf	?___fldiv+2
  8338     0CA2  3000               	movlw	0
  8339     0CA3  00C6               	movwf	?___fldiv+1
  8340     0CA4  3000               	movlw	0
  8341     0CA5  00C5               	movwf	?___fldiv
  8342     0CA6  2DF0               	goto	l761
  8343     0CA7                     l3163:
  8344     0CA7  085D               	movf	___fldiv@bexp,w
  8345     0CA8  00CD               	movwf	??___fldiv
  8346     0CA9  01CE               	clrf	??___fldiv+1
  8347     0CAA  084E               	movf	??___fldiv+1,w
  8348     0CAB  00D0               	movwf	??___fldiv+3
  8349     0CAC  085E               	movf	___fldiv@aexp,w
  8350     0CAD  024D               	subwf	??___fldiv,w
  8351     0CAE  00CF               	movwf	??___fldiv+2
  8352     0CAF  1C03               	skipc
  8353     0CB0  03D0               	decf	??___fldiv+3,f
  8354     0CB1  084F               	movf	??___fldiv+2,w
  8355     0CB2  3E7F               	addlw	127
  8356     0CB3  00D7               	movwf	___fldiv@new_exp
  8357     0CB4  0850               	movf	??___fldiv+3,w
  8358     0CB5  1803               	skipnc
  8359     0CB6  3E01               	addlw	1
  8360     0CB7  3E00               	addlw	0
  8361     0CB8  00D8               	movwf	___fldiv@new_exp+1
  8362     0CB9                     l3165:
  8363     0CB9  084C               	movf	___fldiv@b+3,w
  8364     0CBA  00D5               	movwf	___fldiv@rem+3
  8365     0CBB  084B               	movf	___fldiv@b+2,w
  8366     0CBC  00D4               	movwf	___fldiv@rem+2
  8367     0CBD  084A               	movf	___fldiv@b+1,w
  8368     0CBE  00D3               	movwf	___fldiv@rem+1
  8369     0CBF  0849               	movf	___fldiv@b,w
  8370     0CC0  00D2               	movwf	___fldiv@rem
  8371     0CC1                     l3167:
  8372     0CC1  3000               	movlw	0
  8373     0CC2  00CC               	movwf	___fldiv@b+3
  8374     0CC3  3000               	movlw	0
  8375     0CC4  00CB               	movwf	___fldiv@b+2
  8376     0CC5  3000               	movlw	0
  8377     0CC6  00CA               	movwf	___fldiv@b+1
  8378     0CC7  3000               	movlw	0
  8379     0CC8  00C9               	movwf	___fldiv@b
  8380     0CC9                     l3169:
  8381     0CC9  3000               	movlw	0
  8382     0CCA  00DC               	movwf	___fldiv@grs+3
  8383     0CCB  3000               	movlw	0
  8384     0CCC  00DB               	movwf	___fldiv@grs+2
  8385     0CCD  3000               	movlw	0
  8386     0CCE  00DA               	movwf	___fldiv@grs+1
  8387     0CCF  3000               	movlw	0
  8388     0CD0  00D9               	movwf	___fldiv@grs
  8389     0CD1                     l3171:
  8390     0CD1  01DE               	clrf	___fldiv@aexp
  8391     0CD2  2D1D               	goto	l3191
  8392     0CD3                     l3173:
  8393     0CD3  085E               	movf	___fldiv@aexp,w
  8394     0CD4  1903               	btfsc	3,2
  8395     0CD5  2CD7               	goto	u4161
  8396     0CD6  2CD8               	goto	u4160
  8397     0CD7                     u4161:
  8398     0CD7  2CF8               	goto	l3183
  8399     0CD8                     u4160:
  8400     0CD8                     l3175:
  8401     0CD8  3001               	movlw	1
  8402     0CD9  00CD               	movwf	??___fldiv
  8403     0CDA                     u4175:
  8404     0CDA  1003               	clrc
  8405     0CDB  0DD2               	rlf	___fldiv@rem,f
  8406     0CDC  0DD3               	rlf	___fldiv@rem+1,f
  8407     0CDD  0DD4               	rlf	___fldiv@rem+2,f
  8408     0CDE  0DD5               	rlf	___fldiv@rem+3,f
  8409     0CDF  0BCD               	decfsz	??___fldiv,f
  8410     0CE0  2CDA               	goto	u4175
  8411     0CE1  3001               	movlw	1
  8412     0CE2  00CD               	movwf	??___fldiv
  8413     0CE3                     u4185:
  8414     0CE3  1003               	clrc
  8415     0CE4  0DC9               	rlf	___fldiv@b,f
  8416     0CE5  0DCA               	rlf	___fldiv@b+1,f
  8417     0CE6  0DCB               	rlf	___fldiv@b+2,f
  8418     0CE7  0DCC               	rlf	___fldiv@b+3,f
  8419     0CE8  0BCD               	decfsz	??___fldiv,f
  8420     0CE9  2CE3               	goto	u4185
  8421     0CEA                     l3177:
  8422     0CEA  1FDC               	btfss	___fldiv@grs+3,7
  8423     0CEB  2CED               	goto	u4191
  8424     0CEC  2CEE               	goto	u4190
  8425     0CED                     u4191:
  8426     0CED  2CEF               	goto	l3181
  8427     0CEE                     u4190:
  8428     0CEE                     l3179:
  8429     0CEE  1449               	bsf	___fldiv@b,0
  8430     0CEF                     l3181:
  8431     0CEF  3001               	movlw	1
  8432     0CF0  00CD               	movwf	??___fldiv
  8433     0CF1                     u4205:
  8434     0CF1  1003               	clrc
  8435     0CF2  0DD9               	rlf	___fldiv@grs,f
  8436     0CF3  0DDA               	rlf	___fldiv@grs+1,f
  8437     0CF4  0DDB               	rlf	___fldiv@grs+2,f
  8438     0CF5  0DDC               	rlf	___fldiv@grs+3,f
  8439     0CF6  0BCD               	decfsz	??___fldiv,f
  8440     0CF7  2CF1               	goto	u4205
  8441     0CF8                     l3183:
  8442     0CF8  0848               	movf	___fldiv@a+3,w
  8443     0CF9  0255               	subwf	___fldiv@rem+3,w
  8444     0CFA  1D03               	skipz
  8445     0CFB  2D06               	goto	u4215
  8446     0CFC  0847               	movf	___fldiv@a+2,w
  8447     0CFD  0254               	subwf	___fldiv@rem+2,w
  8448     0CFE  1D03               	skipz
  8449     0CFF  2D06               	goto	u4215
  8450     0D00  0846               	movf	___fldiv@a+1,w
  8451     0D01  0253               	subwf	___fldiv@rem+1,w
  8452     0D02  1D03               	skipz
  8453     0D03  2D06               	goto	u4215
  8454     0D04  0845               	movf	___fldiv@a,w
  8455     0D05  0252               	subwf	___fldiv@rem,w
  8456     0D06                     u4215:
  8457     0D06  1C03               	skipc
  8458     0D07  2D09               	goto	u4211
  8459     0D08  2D0A               	goto	u4210
  8460     0D09                     u4211:
  8461     0D09  2D19               	goto	l3189
  8462     0D0A                     u4210:
  8463     0D0A                     l3185:
  8464     0D0A  175C               	bsf	___fldiv@grs+3,6
  8465     0D0B                     l3187:
  8466     0D0B  0845               	movf	___fldiv@a,w
  8467     0D0C  02D2               	subwf	___fldiv@rem,f
  8468     0D0D  0846               	movf	___fldiv@a+1,w
  8469     0D0E  1C03               	skipc
  8470     0D0F  0F46               	incfsz	___fldiv@a+1,w
  8471     0D10  02D3               	subwf	___fldiv@rem+1,f
  8472     0D11  0847               	movf	___fldiv@a+2,w
  8473     0D12  1C03               	skipc
  8474     0D13  0F47               	incfsz	___fldiv@a+2,w
  8475     0D14  02D4               	subwf	___fldiv@rem+2,f
  8476     0D15  0848               	movf	___fldiv@a+3,w
  8477     0D16  1C03               	skipc
  8478     0D17  0F48               	incfsz	___fldiv@a+3,w
  8479     0D18  02D5               	subwf	___fldiv@rem+3,f
  8480     0D19                     l3189:
  8481     0D19  3001               	movlw	1
  8482     0D1A  00FF               	movwf	btemp+1
  8483     0D1B  087F               	movf	btemp+1,w
  8484     0D1C  07DE               	addwf	___fldiv@aexp,f
  8485     0D1D                     l3191:
  8486     0D1D  301A               	movlw	26
  8487     0D1E  025E               	subwf	___fldiv@aexp,w
  8488     0D1F  1C03               	skipc
  8489     0D20  2D22               	goto	u4221
  8490     0D21  2D23               	goto	u4220
  8491     0D22                     u4221:
  8492     0D22  2CD3               	goto	l3173
  8493     0D23                     u4220:
  8494     0D23                     l3193:
  8495     0D23  0855               	movf	___fldiv@rem+3,w
  8496     0D24  0454               	iorwf	___fldiv@rem+2,w
  8497     0D25  0453               	iorwf	___fldiv@rem+1,w
  8498     0D26  0452               	iorwf	___fldiv@rem,w
  8499     0D27  1903               	skipnz
  8500     0D28  2D2A               	goto	u4231
  8501     0D29  2D2B               	goto	u4230
  8502     0D2A                     u4231:
  8503     0D2A  2D4A               	goto	l3207
  8504     0D2B                     u4230:
  8505     0D2B                     l3195:
  8506     0D2B  1459               	bsf	___fldiv@grs,0
  8507     0D2C  2D4A               	goto	l3207
  8508     0D2D                     l3197:
  8509     0D2D  3001               	movlw	1
  8510     0D2E  00CD               	movwf	??___fldiv
  8511     0D2F                     u4245:
  8512     0D2F  1003               	clrc
  8513     0D30  0DC9               	rlf	___fldiv@b,f
  8514     0D31  0DCA               	rlf	___fldiv@b+1,f
  8515     0D32  0DCB               	rlf	___fldiv@b+2,f
  8516     0D33  0DCC               	rlf	___fldiv@b+3,f
  8517     0D34  0BCD               	decfsz	??___fldiv,f
  8518     0D35  2D2F               	goto	u4245
  8519     0D36                     l3199:
  8520     0D36  1FDC               	btfss	___fldiv@grs+3,7
  8521     0D37  2D39               	goto	u4251
  8522     0D38  2D3A               	goto	u4250
  8523     0D39                     u4251:
  8524     0D39  2D3B               	goto	l3203
  8525     0D3A                     u4250:
  8526     0D3A                     l3201:
  8527     0D3A  1449               	bsf	___fldiv@b,0
  8528     0D3B                     l3203:
  8529     0D3B  3001               	movlw	1
  8530     0D3C  00CD               	movwf	??___fldiv
  8531     0D3D                     u4265:
  8532     0D3D  1003               	clrc
  8533     0D3E  0DD9               	rlf	___fldiv@grs,f
  8534     0D3F  0DDA               	rlf	___fldiv@grs+1,f
  8535     0D40  0DDB               	rlf	___fldiv@grs+2,f
  8536     0D41  0DDC               	rlf	___fldiv@grs+3,f
  8537     0D42  0BCD               	decfsz	??___fldiv,f
  8538     0D43  2D3D               	goto	u4265
  8539     0D44                     l3205:
  8540     0D44  30FF               	movlw	255
  8541     0D45  07D7               	addwf	___fldiv@new_exp,f
  8542     0D46  1803               	skipnc
  8543     0D47  0AD8               	incf	___fldiv@new_exp+1,f
  8544     0D48  30FF               	movlw	255
  8545     0D49  07D8               	addwf	___fldiv@new_exp+1,f
  8546     0D4A                     l3207:
  8547     0D4A  1FCB               	btfss	___fldiv@b+2,7
  8548     0D4B  2D4D               	goto	u4271
  8549     0D4C  2D4E               	goto	u4270
  8550     0D4D                     u4271:
  8551     0D4D  2D2D               	goto	l3197
  8552     0D4E                     u4270:
  8553     0D4E                     l3209:
  8554     0D4E  01DE               	clrf	___fldiv@aexp
  8555     0D4F                     l3211:
  8556     0D4F  1FDC               	btfss	___fldiv@grs+3,7
  8557     0D50  2D52               	goto	u4281
  8558     0D51  2D53               	goto	u4280
  8559     0D52                     u4281:
  8560     0D52  2D6F               	goto	l3219
  8561     0D53                     u4280:
  8562     0D53                     l3213:
  8563     0D53  30FF               	movlw	255
  8564     0D54  0559               	andwf	___fldiv@grs,w
  8565     0D55  00CD               	movwf	??___fldiv
  8566     0D56  30FF               	movlw	255
  8567     0D57  055A               	andwf	___fldiv@grs+1,w
  8568     0D58  00CE               	movwf	??___fldiv+1
  8569     0D59  30FF               	movlw	255
  8570     0D5A  055B               	andwf	___fldiv@grs+2,w
  8571     0D5B  00CF               	movwf	??___fldiv+2
  8572     0D5C  307F               	movlw	127
  8573     0D5D  055C               	andwf	___fldiv@grs+3,w
  8574     0D5E  00D0               	movwf	??___fldiv+3
  8575     0D5F  0850               	movf	??___fldiv+3,w
  8576     0D60  044F               	iorwf	??___fldiv+2,w
  8577     0D61  044E               	iorwf	??___fldiv+1,w
  8578     0D62  044D               	iorwf	??___fldiv,w
  8579     0D63  1903               	skipnz
  8580     0D64  2D66               	goto	u4291
  8581     0D65  2D67               	goto	u4290
  8582     0D66                     u4291:
  8583     0D66  2D6A               	goto	l775
  8584     0D67                     u4290:
  8585     0D67                     l3215:
  8586     0D67  01DE               	clrf	___fldiv@aexp
  8587     0D68  0ADE               	incf	___fldiv@aexp,f
  8588     0D69  2D6F               	goto	l3219
  8589     0D6A                     l775:
  8590     0D6A  1C49               	btfss	___fldiv@b,0
  8591     0D6B  2D6D               	goto	u4301
  8592     0D6C  2D6E               	goto	u4300
  8593     0D6D                     u4301:
  8594     0D6D  2D6F               	goto	l3219
  8595     0D6E                     u4300:
  8596     0D6E  2D67               	goto	l3215
  8597     0D6F                     l3219:
  8598     0D6F  085E               	movf	___fldiv@aexp,w
  8599     0D70  1903               	btfsc	3,2
  8600     0D71  2D73               	goto	u4311
  8601     0D72  2D74               	goto	u4310
  8602     0D73                     u4311:
  8603     0D73  2DA5               	goto	l3229
  8604     0D74                     u4310:
  8605     0D74                     l3221:
  8606     0D74  3001               	movlw	1
  8607     0D75  07C9               	addwf	___fldiv@b,f
  8608     0D76  3000               	movlw	0
  8609     0D77  1803               	skipnc
  8610     0D78  3001               	movlw	1
  8611     0D79  07CA               	addwf	___fldiv@b+1,f
  8612     0D7A  3000               	movlw	0
  8613     0D7B  1803               	skipnc
  8614     0D7C  3001               	movlw	1
  8615     0D7D  07CB               	addwf	___fldiv@b+2,f
  8616     0D7E  3000               	movlw	0
  8617     0D7F  1803               	skipnc
  8618     0D80  3001               	movlw	1
  8619     0D81  07CC               	addwf	___fldiv@b+3,f
  8620     0D82                     l3223:
  8621     0D82  1C4C               	btfss	___fldiv@b+3,0
  8622     0D83  2D85               	goto	u4321
  8623     0D84  2D86               	goto	u4320
  8624     0D85                     u4321:
  8625     0D85  2DA5               	goto	l3229
  8626     0D86                     u4320:
  8627     0D86                     l3225:
  8628     0D86  0849               	movf	___fldiv@b,w
  8629     0D87  00CD               	movwf	??___fldiv
  8630     0D88  084A               	movf	___fldiv@b+1,w
  8631     0D89  00CE               	movwf	??___fldiv+1
  8632     0D8A  084B               	movf	___fldiv@b+2,w
  8633     0D8B  00CF               	movwf	??___fldiv+2
  8634     0D8C  084C               	movf	___fldiv@b+3,w
  8635     0D8D  00D0               	movwf	??___fldiv+3
  8636     0D8E  3001               	movlw	1
  8637     0D8F  00D1               	movwf	??___fldiv+4
  8638     0D90                     u4335:
  8639     0D90  0D50               	rlf	??___fldiv+3,w
  8640     0D91  0CD0               	rrf	??___fldiv+3,f
  8641     0D92  0CCF               	rrf	??___fldiv+2,f
  8642     0D93  0CCE               	rrf	??___fldiv+1,f
  8643     0D94  0CCD               	rrf	??___fldiv,f
  8644     0D95                     u4330:
  8645     0D95  0BD1               	decfsz	??___fldiv+4,f
  8646     0D96  2D90               	goto	u4335
  8647     0D97  0850               	movf	??___fldiv+3,w
  8648     0D98  00CC               	movwf	___fldiv@b+3
  8649     0D99  084F               	movf	??___fldiv+2,w
  8650     0D9A  00CB               	movwf	___fldiv@b+2
  8651     0D9B  084E               	movf	??___fldiv+1,w
  8652     0D9C  00CA               	movwf	___fldiv@b+1
  8653     0D9D  084D               	movf	??___fldiv,w
  8654     0D9E  00C9               	movwf	___fldiv@b
  8655     0D9F                     l3227:
  8656     0D9F  3001               	movlw	1
  8657     0DA0  07D7               	addwf	___fldiv@new_exp,f
  8658     0DA1  1803               	skipnc
  8659     0DA2  0AD8               	incf	___fldiv@new_exp+1,f
  8660     0DA3  3000               	movlw	0
  8661     0DA4  07D8               	addwf	___fldiv@new_exp+1,f
  8662     0DA5                     l3229:
  8663     0DA5  0858               	movf	___fldiv@new_exp+1,w
  8664     0DA6  3A80               	xorlw	128
  8665     0DA7  00FF               	movwf	btemp+1
  8666     0DA8  3080               	movlw	128
  8667     0DA9  027F               	subwf	btemp+1,w
  8668     0DAA  1D03               	skipz
  8669     0DAB  2DAE               	goto	u4345
  8670     0DAC  30FF               	movlw	255
  8671     0DAD  0257               	subwf	___fldiv@new_exp,w
  8672     0DAE                     u4345:
  8673     0DAE  1C03               	skipc
  8674     0DAF  2DB1               	goto	u4341
  8675     0DB0  2DB2               	goto	u4340
  8676     0DB1                     u4341:
  8677     0DB1  2DC0               	goto	l3233
  8678     0DB2                     u4340:
  8679     0DB2                     l3231:
  8680     0DB2  30FF               	movlw	255
  8681     0DB3  1283               	bcf	3,5	;RP0=0, select bank0
  8682     0DB4  1303               	bcf	3,6	;RP1=0, select bank0
  8683     0DB5  00D7               	movwf	___fldiv@new_exp
  8684     0DB6  3000               	movlw	0
  8685     0DB7  00D8               	movwf	___fldiv@new_exp+1
  8686     0DB8  3000               	movlw	0
  8687     0DB9  00CC               	movwf	___fldiv@b+3
  8688     0DBA  3000               	movlw	0
  8689     0DBB  00CB               	movwf	___fldiv@b+2
  8690     0DBC  3000               	movlw	0
  8691     0DBD  00CA               	movwf	___fldiv@b+1
  8692     0DBE  3000               	movlw	0
  8693     0DBF  00C9               	movwf	___fldiv@b
  8694     0DC0                     l3233:
  8695     0DC0  1283               	bcf	3,5	;RP0=0, select bank0
  8696     0DC1  1303               	bcf	3,6	;RP1=0, select bank0
  8697     0DC2  0858               	movf	___fldiv@new_exp+1,w
  8698     0DC3  3A80               	xorlw	128
  8699     0DC4  00FF               	movwf	btemp+1
  8700     0DC5  3080               	movlw	128
  8701     0DC6  027F               	subwf	btemp+1,w
  8702     0DC7  1D03               	skipz
  8703     0DC8  2DCB               	goto	u4355
  8704     0DC9  3001               	movlw	1
  8705     0DCA  0257               	subwf	___fldiv@new_exp,w
  8706     0DCB                     u4355:
  8707     0DCB  1803               	skipnc
  8708     0DCC  2DCE               	goto	u4351
  8709     0DCD  2DCF               	goto	u4350
  8710     0DCE                     u4351:
  8711     0DCE  2DDC               	goto	l781
  8712     0DCF                     u4350:
  8713     0DCF                     l3235:
  8714     0DCF  1283               	bcf	3,5	;RP0=0, select bank0
  8715     0DD0  1303               	bcf	3,6	;RP1=0, select bank0
  8716     0DD1  01D7               	clrf	___fldiv@new_exp
  8717     0DD2  01D8               	clrf	___fldiv@new_exp+1
  8718     0DD3                     l3237:
  8719     0DD3  3000               	movlw	0
  8720     0DD4  00CC               	movwf	___fldiv@b+3
  8721     0DD5  3000               	movlw	0
  8722     0DD6  00CB               	movwf	___fldiv@b+2
  8723     0DD7  3000               	movlw	0
  8724     0DD8  00CA               	movwf	___fldiv@b+1
  8725     0DD9  3000               	movlw	0
  8726     0DDA  00C9               	movwf	___fldiv@b
  8727     0DDB                     l3239:
  8728     0DDB  01D6               	clrf	___fldiv@sign
  8729     0DDC                     l781:
  8730     0DDC  1283               	bcf	3,5	;RP0=0, select bank0
  8731     0DDD  1303               	bcf	3,6	;RP1=0, select bank0
  8732     0DDE  0857               	movf	___fldiv@new_exp,w
  8733     0DDF  00DD               	movwf	___fldiv@bexp
  8734     0DE0                     l3241:
  8735     0DE0  1C5D               	btfss	___fldiv@bexp,0
  8736     0DE1  2DE3               	goto	u4361
  8737     0DE2  2DE4               	goto	u4360
  8738     0DE3                     u4361:
  8739     0DE3  2DE6               	goto	l3245
  8740     0DE4                     u4360:
  8741     0DE4                     l3243:
  8742     0DE4  17CB               	bsf	___fldiv@b+2,7
  8743     0DE5  2DEA               	goto	l3247
  8744     0DE6                     l3245:
  8745     0DE6  307F               	movlw	127
  8746     0DE7  00FF               	movwf	btemp+1
  8747     0DE8  087F               	movf	btemp+1,w
  8748     0DE9  05CB               	andwf	___fldiv@b+2,f
  8749     0DEA                     l3247:
  8750     0DEA  085D               	movf	___fldiv@bexp,w
  8751     0DEB  00CD               	movwf	??___fldiv
  8752     0DEC  1003               	clrc
  8753     0DED  0C4D               	rrf	??___fldiv,w
  8754     0DEE  00CC               	movwf	___fldiv@b+3
  8755     0DEF  2C8C               	goto	l3151
  8756     0DF0                     l761:
  8757     0DF0  0008               	return
  8758     0DF1                     __end_of___fldiv:
  8759                           
  8760                           	psect	text24
  8761     124B                     __ptext24:	
  8762 ;; *************** function _LCD_String_xy *****************
  8763 ;; Defined at:
  8764 ;;		line 114 in file "lcd.c"
  8765 ;; Parameters:    Size  Location     Type
  8766 ;;  row             1    wreg     unsigned char 
  8767 ;;  pos             1    7[COMMON] unsigned char 
  8768 ;;  msg             2    8[COMMON] PTR const unsigned char 
  8769 ;;		 -> STR_9(21), STR_7(24), buffer(17), STR_5(14), 
  8770 ;;		 -> STR_4(17), STR_3(15), STR_2(12), STR_1(10), 
  8771 ;; Auto vars:     Size  Location     Type
  8772 ;;  row             1    0[BANK0 ] unsigned char 
  8773 ;;  location        1    1[BANK0 ] unsigned char 
  8774 ;; Return value:  Size  Location     Type
  8775 ;;                  1    wreg      void 
  8776 ;; Registers used:
  8777 ;;		wreg, fsr0l, fsr0h, status,2, status,0, btemp+1, pclath, cstack
  8778 ;; Tracked objects:
  8779 ;;		On entry : 0/0
  8780 ;;		On exit  : 0/0
  8781 ;;		Unchanged: 0/0
  8782 ;; Data sizes:     COMMON   BANK0   BANK1   BANK3   BANK2
  8783 ;;      Params:         3       0       0       0       0
  8784 ;;      Locals:         0       2       0       0       0
  8785 ;;      Temps:          0       0       0       0       0
  8786 ;;      Totals:         3       2       0       0       0
  8787 ;;Total ram usage:        5 bytes
  8788 ;; Hardware stack levels used: 1
  8789 ;; Hardware stack levels required when called: 3
  8790 ;; This function calls:
  8791 ;;		_LCD_Command
  8792 ;;		_LCD_String
  8793 ;; This function is called by:
  8794 ;;		_main
  8795 ;;		_function_clave_Seguridad
  8796 ;;		_function_eBloqueado
  8797 ;;		_function_eMonitoreo
  8798 ;;		_function_ambiental
  8799 ;; This function uses a non-reentrant model
  8800 ;;
  8801                           
  8802     124B                     _LCD_String_xy:	
  8803                           ;psect for function _LCD_String_xy
  8804                           
  8805                           
  8806                           ;incstack = 0
  8807                           ; Regs used in _LCD_String_xy: [wreg-fsr0h+status,2+status,0+btemp+1+pclath+cstack]
  8808                           ;LCD_String_xy@row stored from wreg
  8809     124B  1283               	bcf	3,5	;RP0=0, select bank0
  8810     124C  1303               	bcf	3,6	;RP1=0, select bank0
  8811     124D  00A0               	movwf	LCD_String_xy@row
  8812     124E                     l3741:
  8813     124E                     l3743:
  8814                           
  8815                           ;lcd.c: 117:     if(row<=1)
  8816     124E  3002               	movlw	2
  8817     124F  0220               	subwf	LCD_String_xy@row,w
  8818     1250  1803               	skipnc
  8819     1251  2A53               	goto	u4981
  8820     1252  2A54               	goto	u4980
  8821     1253                     u4981:
  8822     1253  2A5F               	goto	l3749
  8823     1254                     u4980:
  8824     1254                     l3745:
  8825                           
  8826                           ;lcd.c: 118:     {;lcd.c: 119:         location=(0x80) | ((pos) & 0x0f);
  8827     1254  0877               	movf	LCD_String_xy@pos,w
  8828     1255  390F               	andlw	15
  8829     1256  3880               	iorlw	128
  8830     1257  00A1               	movwf	LCD_String_xy@location
  8831     1258                     l3747:
  8832                           
  8833                           ;lcd.c: 120:         LCD_Command(location);
  8834     1258  0821               	movf	LCD_String_xy@location,w
  8835     1259  160A  118A  22F6  160A  118A  	fcall	_LCD_Command
  8836                           
  8837                           ;lcd.c: 121:     }
  8838     125E  2A69               	goto	l3753
  8839     125F                     l3749:
  8840                           
  8841                           ;lcd.c: 123:     {;lcd.c: 124:         location=(0xC0) | ((pos) & 0x0f);
  8842     125F  0877               	movf	LCD_String_xy@pos,w
  8843     1260  390F               	andlw	15
  8844     1261  38C0               	iorlw	192
  8845     1262  00A1               	movwf	LCD_String_xy@location
  8846     1263                     l3751:
  8847                           
  8848                           ;lcd.c: 125:         LCD_Command(location);
  8849     1263  0821               	movf	LCD_String_xy@location,w
  8850     1264  160A  118A  22F6  160A  118A  	fcall	_LCD_Command
  8851     1269                     l3753:
  8852                           
  8853                           ;lcd.c: 129:     LCD_String(msg);
  8854     1269  0878               	movf	LCD_String_xy@msg,w
  8855     126A  00F5               	movwf	LCD_String@msg
  8856     126B  0879               	movf	LCD_String_xy@msg+1,w
  8857     126C  00F6               	movwf	LCD_String@msg+1
  8858     126D  160A  118A  2225  160A  118A  	fcall	_LCD_String
  8859     1272                     l156:
  8860     1272  0008               	return
  8861     1273                     __end_of_LCD_String_xy:
  8862                           
  8863                           	psect	text25
  8864     1225                     __ptext25:	
  8865 ;; *************** function _LCD_String *****************
  8866 ;; Defined at:
  8867 ;;		line 105 in file "lcd.c"
  8868 ;; Parameters:    Size  Location     Type
  8869 ;;  msg             2    5[COMMON] PTR const unsigned char 
  8870 ;;		 -> STR_9(21), STR_7(24), buffer(17), STR_5(14), 
  8871 ;;		 -> STR_4(17), STR_3(15), STR_2(12), STR_1(10), 
  8872 ;; Auto vars:     Size  Location     Type
  8873 ;;		None
  8874 ;; Return value:  Size  Location     Type
  8875 ;;                  1    wreg      void 
  8876 ;; Registers used:
  8877 ;;		wreg, fsr0l, fsr0h, status,2, status,0, btemp+1, pclath, cstack
  8878 ;; Tracked objects:
  8879 ;;		On entry : 0/0
  8880 ;;		On exit  : 0/0
  8881 ;;		Unchanged: 0/0
  8882 ;; Data sizes:     COMMON   BANK0   BANK1   BANK3   BANK2
  8883 ;;      Params:         2       0       0       0       0
  8884 ;;      Locals:         0       0       0       0       0
  8885 ;;      Temps:          0       0       0       0       0
  8886 ;;      Totals:         2       0       0       0       0
  8887 ;;Total ram usage:        2 bytes
  8888 ;; Hardware stack levels used: 1
  8889 ;; Hardware stack levels required when called: 2
  8890 ;; This function calls:
  8891 ;;		_LCD_Char
  8892 ;; This function is called by:
  8893 ;;		_LCD_String_xy
  8894 ;; This function uses a non-reentrant model
  8895 ;;
  8896                           
  8897     1225                     _LCD_String:	
  8898                           ;psect for function _LCD_String
  8899                           
  8900     1225                     l3703:	
  8901                           ;incstack = 0
  8902                           ; Regs used in _LCD_String: [wreg-fsr0h+status,2+status,0+btemp+1+pclath+cstack]
  8903                           
  8904                           
  8905                           ;lcd.c: 105: void LCD_String(const char *msg);lcd.c: 106: {;lcd.c: 107:  while((*msg)!=0
      +                          )
  8906     1225  2A3A               	goto	l3709
  8907     1226                     l3705:
  8908                           
  8909                           ;lcd.c: 108:  {;lcd.c: 109:    LCD_Char(*msg);
  8910     1226  0876               	movf	LCD_String@msg+1,w
  8911     1227  00FF               	movwf	btemp+1
  8912     1228  0875               	movf	LCD_String@msg,w
  8913     1229  0084               	movwf	4
  8914     122A  120A  158A  2000  160A  118A  	fcall	stringtab
  8915     122F  160A  118A  232C  160A  118A  	fcall	_LCD_Char
  8916     1234                     l3707:
  8917                           
  8918                           ;lcd.c: 110:    msg++;
  8919     1234  3001               	movlw	1
  8920     1235  07F5               	addwf	LCD_String@msg,f
  8921     1236  1803               	skipnc
  8922     1237  0AF6               	incf	LCD_String@msg+1,f
  8923     1238  3000               	movlw	0
  8924     1239  07F6               	addwf	LCD_String@msg+1,f
  8925     123A                     l3709:
  8926                           
  8927                           ;lcd.c: 107:  while((*msg)!=0)
  8928     123A  0876               	movf	LCD_String@msg+1,w
  8929     123B  1283               	bcf	3,5	;RP0=0, select bank0
  8930     123C  1303               	bcf	3,6	;RP1=0, select bank0
  8931     123D  00FF               	movwf	btemp+1
  8932     123E  0875               	movf	LCD_String@msg,w
  8933     123F  0084               	movwf	4
  8934     1240  120A  158A  2000  160A  118A  	fcall	stringtab
  8935     1245  3A00               	xorlw	0
  8936     1246  1D03               	skipz
  8937     1247  2A49               	goto	u4931
  8938     1248  2A4A               	goto	u4930
  8939     1249                     u4931:
  8940     1249  2A26               	goto	l3705
  8941     124A                     u4930:
  8942     124A                     l151:
  8943     124A  0008               	return
  8944     124B                     __end_of_LCD_String:
  8945                           
  8946                           	psect	text26
  8947     132C                     __ptext26:	
  8948 ;; *************** function _LCD_Char *****************
  8949 ;; Defined at:
  8950 ;;		line 90 in file "lcd.c"
  8951 ;; Parameters:    Size  Location     Type
  8952 ;;  dat             1    wreg     unsigned char 
  8953 ;; Auto vars:     Size  Location     Type
  8954 ;;  dat             1    4[COMMON] unsigned char 
  8955 ;; Return value:  Size  Location     Type
  8956 ;;                  1    wreg      void 
  8957 ;; Registers used:
  8958 ;;		wreg, status,2, status,0
  8959 ;; Tracked objects:
  8960 ;;		On entry : 0/0
  8961 ;;		On exit  : 0/0
  8962 ;;		Unchanged: 0/0
  8963 ;; Data sizes:     COMMON   BANK0   BANK1   BANK3   BANK2
  8964 ;;      Params:         0       0       0       0       0
  8965 ;;      Locals:         1       0       0       0       0
  8966 ;;      Temps:          2       0       0       0       0
  8967 ;;      Totals:         3       0       0       0       0
  8968 ;;Total ram usage:        3 bytes
  8969 ;; Hardware stack levels used: 1
  8970 ;; Hardware stack levels required when called: 1
  8971 ;; This function calls:
  8972 ;;		Nothing
  8973 ;; This function is called by:
  8974 ;;		_function_clave_Seguridad
  8975 ;;		_LCD_String
  8976 ;; This function uses a non-reentrant model
  8977 ;;
  8978                           
  8979     132C                     _LCD_Char:	
  8980                           ;psect for function _LCD_Char
  8981                           
  8982                           
  8983                           ;incstack = 0
  8984                           ; Regs used in _LCD_Char: [wreg+status,2+status,0]
  8985                           ;LCD_Char@dat stored from wreg
  8986     132C  00F4               	movwf	LCD_Char@dat
  8987     132D                     l3521:
  8988                           
  8989                           ;lcd.c: 90: void LCD_Char(unsigned char dat);lcd.c: 91: {;lcd.c: 92:  PORTD = (PORTD & 0
      +                          x0f) | (0xF0 & dat);
  8990     132D  30F0               	movlw	240
  8991     132E  0574               	andwf	LCD_Char@dat,w
  8992     132F  00F2               	movwf	??_LCD_Char
  8993     1330  1283               	bcf	3,5	;RP0=0, select bank0
  8994     1331  1303               	bcf	3,6	;RP1=0, select bank0
  8995     1332  0808               	movf	8,w	;volatile
  8996     1333  390F               	andlw	15
  8997     1334  0472               	iorwf	??_LCD_Char,w
  8998     1335  0088               	movwf	8	;volatile
  8999     1336                     l3523:
  9000                           
  9001                           ;lcd.c: 93:  RD0 = 1;
  9002     1336  1408               	bsf	8,0	;volatile
  9003     1337                     l3525:
  9004                           
  9005                           ;lcd.c: 94:  RD1 = 1;
  9006     1337  1488               	bsf	8,1	;volatile
  9007     1338                     l3527:
  9008                           
  9009                           ;lcd.c: 95:  __nop();
  9010     1338  0000               	nop
  9011     1339                     l3529:
  9012                           
  9013                           ;lcd.c: 96:  RD1 = 0;
  9014     1339  1283               	bcf	3,5	;RP0=0, select bank0
  9015     133A  1303               	bcf	3,6	;RP1=0, select bank0
  9016     133B  1088               	bcf	8,1	;volatile
  9017     133C                     l3531:
  9018                           
  9019                           ;lcd.c: 97:  _delay((unsigned long)((1)*(8000000/4000.0)));
  9020     133C  3003               	movlw	3
  9021     133D  00F3               	movwf	??_LCD_Char+1
  9022     133E  3097               	movlw	151
  9023     133F  00F2               	movwf	??_LCD_Char
  9024     1340                     u5377:
  9025     1340  0BF2               	decfsz	??_LCD_Char,f
  9026     1341  2B40               	goto	u5377
  9027     1342  0BF3               	decfsz	??_LCD_Char+1,f
  9028     1343  2B40               	goto	u5377
  9029     1344  2B45               	nop2
  9030     1345                     l3533:
  9031                           
  9032                           ;lcd.c: 98:     PORTD = (unsigned char)((PORTD & 0x0f) | (dat<<4));
  9033     1345  0874               	movf	LCD_Char@dat,w
  9034     1346  00F2               	movwf	??_LCD_Char
  9035     1347  3004               	movlw	4
  9036     1348                     u4545:
  9037     1348  1003               	clrc
  9038     1349  0DF2               	rlf	??_LCD_Char,f
  9039     134A  3EFF               	addlw	-1
  9040     134B  1D03               	skipz
  9041     134C  2B48               	goto	u4545
  9042     134D  1283               	bcf	3,5	;RP0=0, select bank0
  9043     134E  1303               	bcf	3,6	;RP1=0, select bank0
  9044     134F  0808               	movf	8,w	;volatile
  9045     1350  390F               	andlw	15
  9046     1351  0472               	iorwf	??_LCD_Char,w
  9047     1352  0088               	movwf	8	;volatile
  9048     1353                     l3535:
  9049                           
  9050                           ;lcd.c: 99:  RD1 = 1;
  9051     1353  1488               	bsf	8,1	;volatile
  9052     1354                     l3537:
  9053                           
  9054                           ;lcd.c: 100:  __nop();
  9055     1354  0000               	nop
  9056     1355                     l3539:
  9057                           
  9058                           ;lcd.c: 101:  RD1 = 0;
  9059     1355  1283               	bcf	3,5	;RP0=0, select bank0
  9060     1356  1303               	bcf	3,6	;RP1=0, select bank0
  9061     1357  1088               	bcf	8,1	;volatile
  9062                           
  9063                           ;lcd.c: 102:  _delay((unsigned long)((3)*(8000000/4000.0)));
  9064     1358  3008               	movlw	8
  9065     1359  00F3               	movwf	??_LCD_Char+1
  9066     135A  30C9               	movlw	201
  9067     135B  00F2               	movwf	??_LCD_Char
  9068     135C                     u5387:
  9069     135C  0BF2               	decfsz	??_LCD_Char,f
  9070     135D  2B5C               	goto	u5387
  9071     135E  0BF3               	decfsz	??_LCD_Char+1,f
  9072     135F  2B5C               	goto	u5387
  9073     1360  2B61               	nop2
  9074     1361                     l145:
  9075     1361  0008               	return
  9076     1362                     __end_of_LCD_Char:
  9077                           
  9078                           	psect	text27
  9079     119D                     __ptext27:	
  9080 ;; *************** function _LCD_Clear *****************
  9081 ;; Defined at:
  9082 ;;		line 145 in file "lcd.c"
  9083 ;; Parameters:    Size  Location     Type
  9084 ;;		None
  9085 ;; Auto vars:     Size  Location     Type
  9086 ;;		None
  9087 ;; Return value:  Size  Location     Type
  9088 ;;                  1    wreg      void 
  9089 ;; Registers used:
  9090 ;;		wreg, status,2, status,0, pclath, cstack
  9091 ;; Tracked objects:
  9092 ;;		On entry : 0/0
  9093 ;;		On exit  : 0/0
  9094 ;;		Unchanged: 0/0
  9095 ;; Data sizes:     COMMON   BANK0   BANK1   BANK3   BANK2
  9096 ;;      Params:         0       0       0       0       0
  9097 ;;      Locals:         0       0       0       0       0
  9098 ;;      Temps:          2       0       0       0       0
  9099 ;;      Totals:         2       0       0       0       0
  9100 ;;Total ram usage:        2 bytes
  9101 ;; Hardware stack levels used: 1
  9102 ;; Hardware stack levels required when called: 2
  9103 ;; This function calls:
  9104 ;;		_LCD_Command
  9105 ;; This function is called by:
  9106 ;;		_main
  9107 ;;		_function_clave_Seguridad
  9108 ;;		_function_eBloqueado
  9109 ;;		_function_eAlarma
  9110 ;;		_function_eMonitoreo
  9111 ;;		_function_ambiental
  9112 ;; This function uses a non-reentrant model
  9113 ;;
  9114                           
  9115     119D                     _LCD_Clear:	
  9116                           ;psect for function _LCD_Clear
  9117                           
  9118     119D                     l3755:	
  9119                           ;incstack = 0
  9120                           ; Regs used in _LCD_Clear: [wreg+status,2+status,0+pclath+cstack]
  9121                           
  9122                           
  9123                           ;lcd.c: 147:     LCD_Command(0x01);
  9124     119D  3001               	movlw	1
  9125     119E  160A  118A  22F6  160A  118A  	fcall	_LCD_Command
  9126     11A3                     l3757:
  9127                           
  9128                           ;lcd.c: 148:     _delay((unsigned long)((3)*(8000000/4000.0)));
  9129     11A3  3008               	movlw	8
  9130     11A4  00F6               	movwf	??_LCD_Clear+1
  9131     11A5  30C9               	movlw	201
  9132     11A6  00F5               	movwf	??_LCD_Clear
  9133     11A7                     u5397:
  9134     11A7  0BF5               	decfsz	??_LCD_Clear,f
  9135     11A8  29A7               	goto	u5397
  9136     11A9  0BF6               	decfsz	??_LCD_Clear+1,f
  9137     11AA  29A7               	goto	u5397
  9138     11AB  29AC               	nop2
  9139     11AC                     l159:
  9140     11AC  0008               	return
  9141     11AD                     __end_of_LCD_Clear:
  9142                           
  9143                           	psect	text28
  9144     1204                     __ptext28:	
  9145 ;; *************** function _ConversionADC *****************
  9146 ;; Defined at:
  9147 ;;		line 12 in file "ADC.c"
  9148 ;; Parameters:    Size  Location     Type
  9149 ;;  channel         2    2[COMMON] int 
  9150 ;; Auto vars:     Size  Location     Type
  9151 ;;		None
  9152 ;; Return value:  Size  Location     Type
  9153 ;;                  2    2[COMMON] int 
  9154 ;; Registers used:
  9155 ;;		wreg, status,2, status,0
  9156 ;; Tracked objects:
  9157 ;;		On entry : 0/0
  9158 ;;		On exit  : 0/0
  9159 ;;		Unchanged: 0/0
  9160 ;; Data sizes:     COMMON   BANK0   BANK1   BANK3   BANK2
  9161 ;;      Params:         2       0       0       0       0
  9162 ;;      Locals:         0       0       0       0       0
  9163 ;;      Temps:          1       0       0       0       0
  9164 ;;      Totals:         3       0       0       0       0
  9165 ;;Total ram usage:        3 bytes
  9166 ;; Hardware stack levels used: 1
  9167 ;; Hardware stack levels required when called: 1
  9168 ;; This function calls:
  9169 ;;		Nothing
  9170 ;; This function is called by:
  9171 ;;		_function_ambiental
  9172 ;; This function uses a non-reentrant model
  9173 ;;
  9174                           
  9175     1204                     _ConversionADC:	
  9176                           ;psect for function _ConversionADC
  9177                           
  9178     1204                     l3033:	
  9179                           ;incstack = 0
  9180                           ; Regs used in _ConversionADC: [wreg+status,2+status,0]
  9181                           
  9182                           
  9183                           ;ADC.c: 13:     ADCON0bits.CHS = (0x0f & channel);
  9184     1204  0872               	movf	ConversionADC@channel,w
  9185     1205  390F               	andlw	15
  9186     1206  00F4               	movwf	??_ConversionADC
  9187     1207  0DF4               	rlf	??_ConversionADC,f
  9188     1208  0DF4               	rlf	??_ConversionADC,f
  9189     1209  1283               	bcf	3,5	;RP0=0, select bank0
  9190     120A  1303               	bcf	3,6	;RP1=0, select bank0
  9191     120B  081F               	movf	31,w	;volatile
  9192     120C  0674               	xorwf	??_ConversionADC,w
  9193     120D  39C3               	andlw	-61
  9194     120E  0674               	xorwf	??_ConversionADC,w
  9195     120F  009F               	movwf	31	;volatile
  9196     1210                     l3035:
  9197                           
  9198                           ;ADC.c: 14:      ADCON0bits.ADON = 1;
  9199     1210  141F               	bsf	31,0	;volatile
  9200     1211                     l3037:
  9201                           
  9202                           ;ADC.c: 15:      _delay((unsigned long)((30)*(8000000/4000000.0)));
  9203     1211  3013               	movlw	19
  9204     1212  00F4               	movwf	??_ConversionADC
  9205     1213                     u5407:
  9206     1213  0BF4               	decfsz	??_ConversionADC,f
  9207     1214  2A13               	goto	u5407
  9208     1215  2A16               	nop2
  9209     1216                     l3039:
  9210                           
  9211                           ;ADC.c: 16:      ADCON0bits.GO = 1;
  9212     1216  1283               	bcf	3,5	;RP0=0, select bank0
  9213     1217  1303               	bcf	3,6	;RP1=0, select bank0
  9214     1218  149F               	bsf	31,1	;volatile
  9215     1219                     l267:	
  9216                           ;ADC.c: 17:      while (ADCON0bits.GO);
  9217                           
  9218     1219  189F               	btfsc	31,1	;volatile
  9219     121A  2A1C               	goto	u3951
  9220     121B  2A1D               	goto	u3950
  9221     121C                     u3951:
  9222     121C  2A19               	goto	l267
  9223     121D                     u3950:
  9224     121D                     l269:
  9225                           
  9226                           ;ADC.c: 18:      ADCON0bits.ADON = 0;
  9227     121D  101F               	bcf	31,0	;volatile
  9228     121E                     l3041:
  9229                           
  9230                           ;ADC.c: 19:      return ((ADRESH << 8) | ADRESL);
  9231     121E  081E               	movf	30,w	;volatile
  9232     121F  00F3               	movwf	?_ConversionADC+1
  9233     1220  1683               	bsf	3,5	;RP0=1, select bank1
  9234     1221  1303               	bcf	3,6	;RP1=0, select bank1
  9235     1222  081E               	movf	30,w	;volatile
  9236     1223  00F2               	movwf	?_ConversionADC
  9237     1224                     l270:
  9238     1224  0008               	return
  9239     1225                     __end_of_ConversionADC:
  9240                           
  9241                           	psect	text29
  9242     1178                     __ptext29:	
  9243 ;; *************** function _LED_INIT *****************
  9244 ;; Defined at:
  9245 ;;		line 5 in file "LedsSalida.c"
  9246 ;; Parameters:    Size  Location     Type
  9247 ;;		None
  9248 ;; Auto vars:     Size  Location     Type
  9249 ;;		None
  9250 ;; Return value:  Size  Location     Type
  9251 ;;                  1    wreg      void 
  9252 ;; Registers used:
  9253 ;;		status,2
  9254 ;; Tracked objects:
  9255 ;;		On entry : 0/0
  9256 ;;		On exit  : 0/0
  9257 ;;		Unchanged: 0/0
  9258 ;; Data sizes:     COMMON   BANK0   BANK1   BANK3   BANK2
  9259 ;;      Params:         0       0       0       0       0
  9260 ;;      Locals:         0       0       0       0       0
  9261 ;;      Temps:          0       0       0       0       0
  9262 ;;      Totals:         0       0       0       0       0
  9263 ;;Total ram usage:        0 bytes
  9264 ;; Hardware stack levels used: 1
  9265 ;; Hardware stack levels required when called: 1
  9266 ;; This function calls:
  9267 ;;		Nothing
  9268 ;; This function is called by:
  9269 ;;		_main
  9270 ;; This function uses a non-reentrant model
  9271 ;;
  9272                           
  9273     1178                     _LED_INIT:	
  9274                           ;psect for function _LED_INIT
  9275                           
  9276     1178                     l3255:	
  9277                           ;incstack = 0
  9278                           ; Regs used in _LED_INIT: [status,2]
  9279                           
  9280                           
  9281                           ;LedsSalida.c: 6:     TRISE= 0;
  9282     1178  1683               	bsf	3,5	;RP0=1, select bank1
  9283     1179  1303               	bcf	3,6	;RP1=0, select bank1
  9284     117A  0189               	clrf	9	;volatile
  9285                           
  9286                           ;LedsSalida.c: 7:     ANSEL =0;
  9287     117B  1683               	bsf	3,5	;RP0=1, select bank3
  9288     117C  1703               	bsf	3,6	;RP1=1, select bank3
  9289     117D  0188               	clrf	8	;volatile
  9290     117E                     l244:
  9291     117E  0008               	return
  9292     117F                     __end_of_LED_INIT:
  9293                           
  9294                           	psect	text30
  9295     129C                     __ptext30:	
  9296 ;; *************** function _LCD_Init *****************
  9297 ;; Defined at:
  9298 ;;		line 37 in file "lcd.c"
  9299 ;; Parameters:    Size  Location     Type
  9300 ;;		None
  9301 ;; Auto vars:     Size  Location     Type
  9302 ;;		None
  9303 ;; Return value:  Size  Location     Type
  9304 ;;                  1    wreg      void 
  9305 ;; Registers used:
  9306 ;;		wreg, status,2, status,0, pclath, cstack
  9307 ;; Tracked objects:
  9308 ;;		On entry : 0/0
  9309 ;;		On exit  : 0/0
  9310 ;;		Unchanged: 0/0
  9311 ;; Data sizes:     COMMON   BANK0   BANK1   BANK3   BANK2
  9312 ;;      Params:         0       0       0       0       0
  9313 ;;      Locals:         0       0       0       0       0
  9314 ;;      Temps:          2       0       0       0       0
  9315 ;;      Totals:         2       0       0       0       0
  9316 ;;Total ram usage:        2 bytes
  9317 ;; Hardware stack levels used: 1
  9318 ;; Hardware stack levels required when called: 2
  9319 ;; This function calls:
  9320 ;;		_LCD_Command
  9321 ;; This function is called by:
  9322 ;;		_main
  9323 ;; This function uses a non-reentrant model
  9324 ;;
  9325                           
  9326     129C                     _LCD_Init:	
  9327                           ;psect for function _LCD_Init
  9328                           
  9329     129C                     l3783:	
  9330                           ;incstack = 0
  9331                           ; Regs used in _LCD_Init: [wreg+status,2+status,0+pclath+cstack]
  9332                           
  9333                           
  9334                           ;lcd.c: 39:     TRISD = 0;
  9335     129C  1683               	bsf	3,5	;RP0=1, select bank1
  9336     129D  1303               	bcf	3,6	;RP1=0, select bank1
  9337     129E  0188               	clrf	8	;volatile
  9338     129F                     l3785:
  9339                           
  9340                           ;lcd.c: 40:     _delay((unsigned long)((15)*(8000000/4000.0)));
  9341     129F  3027               	movlw	39
  9342     12A0  00F6               	movwf	??_LCD_Init+1
  9343     12A1  30F5               	movlw	245
  9344     12A2  00F5               	movwf	??_LCD_Init
  9345     12A3                     u5417:
  9346     12A3  0BF5               	decfsz	??_LCD_Init,f
  9347     12A4  2AA3               	goto	u5417
  9348     12A5  0BF6               	decfsz	??_LCD_Init+1,f
  9349     12A6  2AA3               	goto	u5417
  9350     12A7                     l3787:
  9351                           
  9352                           ;lcd.c: 41:     LCD_Command(0x02);
  9353     12A7  3002               	movlw	2
  9354     12A8  160A  118A  22F6  160A  118A  	fcall	_LCD_Command
  9355     12AD                     l3789:
  9356                           
  9357                           ;lcd.c: 42:     LCD_Command(0x28);
  9358     12AD  3028               	movlw	40
  9359     12AE  160A  118A  22F6  160A  118A  	fcall	_LCD_Command
  9360     12B3                     l3791:
  9361                           
  9362                           ;lcd.c: 43:     LCD_Command(0x01);
  9363     12B3  3001               	movlw	1
  9364     12B4  160A  118A  22F6  160A  118A  	fcall	_LCD_Command
  9365     12B9                     l3793:
  9366                           
  9367                           ;lcd.c: 44:     LCD_Command(0x0c);
  9368     12B9  300C               	movlw	12
  9369     12BA  160A  118A  22F6  160A  118A  	fcall	_LCD_Command
  9370     12BF                     l3795:
  9371                           
  9372                           ;lcd.c: 45:     LCD_Command(0x06);
  9373     12BF  3006               	movlw	6
  9374     12C0  160A  118A  22F6  160A  118A  	fcall	_LCD_Command
  9375     12C5                     l139:
  9376     12C5  0008               	return
  9377     12C6                     __end_of_LCD_Init:
  9378                           
  9379                           	psect	text31
  9380     12F6                     __ptext31:	
  9381 ;; *************** function _LCD_Command *****************
  9382 ;; Defined at:
  9383 ;;		line 61 in file "lcd.c"
  9384 ;; Parameters:    Size  Location     Type
  9385 ;;  cmd             1    wreg     unsigned char 
  9386 ;; Auto vars:     Size  Location     Type
  9387 ;;  cmd             1    4[COMMON] unsigned char 
  9388 ;; Return value:  Size  Location     Type
  9389 ;;                  1    wreg      void 
  9390 ;; Registers used:
  9391 ;;		wreg, status,2, status,0
  9392 ;; Tracked objects:
  9393 ;;		On entry : 0/0
  9394 ;;		On exit  : 0/0
  9395 ;;		Unchanged: 0/0
  9396 ;; Data sizes:     COMMON   BANK0   BANK1   BANK3   BANK2
  9397 ;;      Params:         0       0       0       0       0
  9398 ;;      Locals:         1       0       0       0       0
  9399 ;;      Temps:          2       0       0       0       0
  9400 ;;      Totals:         3       0       0       0       0
  9401 ;;Total ram usage:        3 bytes
  9402 ;; Hardware stack levels used: 1
  9403 ;; Hardware stack levels required when called: 1
  9404 ;; This function calls:
  9405 ;;		Nothing
  9406 ;; This function is called by:
  9407 ;;		_function_clave_Seguridad
  9408 ;;		_LCD_Init
  9409 ;;		_LCD_String_xy
  9410 ;;		_LCD_Clear
  9411 ;; This function uses a non-reentrant model
  9412 ;;
  9413                           
  9414     12F6                     _LCD_Command:	
  9415                           ;psect for function _LCD_Command
  9416                           
  9417                           
  9418                           ;incstack = 0
  9419                           ; Regs used in _LCD_Command: [wreg+status,2+status,0]
  9420                           ;LCD_Command@cmd stored from wreg
  9421     12F6  00F4               	movwf	LCD_Command@cmd
  9422     12F7                     l3683:
  9423                           
  9424                           ;lcd.c: 61: void LCD_Command(unsigned char cmd );lcd.c: 62: {;lcd.c: 63:  PORTD = (PORTD
      +                           & 0x0f) |(0xF0 & cmd);
  9425     12F7  30F0               	movlw	240
  9426     12F8  0574               	andwf	LCD_Command@cmd,w
  9427     12F9  00F2               	movwf	??_LCD_Command
  9428     12FA  1283               	bcf	3,5	;RP0=0, select bank0
  9429     12FB  1303               	bcf	3,6	;RP1=0, select bank0
  9430     12FC  0808               	movf	8,w	;volatile
  9431     12FD  390F               	andlw	15
  9432     12FE  0472               	iorwf	??_LCD_Command,w
  9433     12FF  0088               	movwf	8	;volatile
  9434     1300                     l3685:
  9435                           
  9436                           ;lcd.c: 64:  RD0 = 0;
  9437     1300  1008               	bcf	8,0	;volatile
  9438     1301                     l3687:
  9439                           
  9440                           ;lcd.c: 65:  RD1 = 1;
  9441     1301  1488               	bsf	8,1	;volatile
  9442     1302                     l3689:
  9443                           
  9444                           ;lcd.c: 66:  __nop();
  9445     1302  0000               	nop
  9446     1303                     l3691:
  9447                           
  9448                           ;lcd.c: 67:  RD1 = 0;
  9449     1303  1283               	bcf	3,5	;RP0=0, select bank0
  9450     1304  1303               	bcf	3,6	;RP1=0, select bank0
  9451     1305  1088               	bcf	8,1	;volatile
  9452     1306                     l3693:
  9453                           
  9454                           ;lcd.c: 68:  _delay((unsigned long)((1)*(8000000/4000.0)));
  9455     1306  3003               	movlw	3
  9456     1307  00F3               	movwf	??_LCD_Command+1
  9457     1308  3097               	movlw	151
  9458     1309  00F2               	movwf	??_LCD_Command
  9459     130A                     u5427:
  9460     130A  0BF2               	decfsz	??_LCD_Command,f
  9461     130B  2B0A               	goto	u5427
  9462     130C  0BF3               	decfsz	??_LCD_Command+1,f
  9463     130D  2B0A               	goto	u5427
  9464     130E  2B0F               	nop2
  9465     130F                     l3695:
  9466                           
  9467                           ;lcd.c: 69:     PORTD = (unsigned char)((PORTD & 0x0f) | (cmd<<4));
  9468     130F  0874               	movf	LCD_Command@cmd,w
  9469     1310  00F2               	movwf	??_LCD_Command
  9470     1311  3004               	movlw	4
  9471     1312                     u4925:
  9472     1312  1003               	clrc
  9473     1313  0DF2               	rlf	??_LCD_Command,f
  9474     1314  3EFF               	addlw	-1
  9475     1315  1D03               	skipz
  9476     1316  2B12               	goto	u4925
  9477     1317  1283               	bcf	3,5	;RP0=0, select bank0
  9478     1318  1303               	bcf	3,6	;RP1=0, select bank0
  9479     1319  0808               	movf	8,w	;volatile
  9480     131A  390F               	andlw	15
  9481     131B  0472               	iorwf	??_LCD_Command,w
  9482     131C  0088               	movwf	8	;volatile
  9483     131D                     l3697:
  9484                           
  9485                           ;lcd.c: 70:  RD1 = 1;
  9486     131D  1488               	bsf	8,1	;volatile
  9487     131E                     l3699:
  9488                           
  9489                           ;lcd.c: 71:  __nop();
  9490     131E  0000               	nop
  9491     131F                     l3701:
  9492                           
  9493                           ;lcd.c: 72:  RD1 = 0;
  9494     131F  1283               	bcf	3,5	;RP0=0, select bank0
  9495     1320  1303               	bcf	3,6	;RP1=0, select bank0
  9496     1321  1088               	bcf	8,1	;volatile
  9497                           
  9498                           ;lcd.c: 73:  _delay((unsigned long)((3)*(8000000/4000.0)));
  9499     1322  3008               	movlw	8
  9500     1323  00F3               	movwf	??_LCD_Command+1
  9501     1324  30C9               	movlw	201
  9502     1325  00F2               	movwf	??_LCD_Command
  9503     1326                     u5437:
  9504     1326  0BF2               	decfsz	??_LCD_Command,f
  9505     1327  2B26               	goto	u5437
  9506     1328  0BF3               	decfsz	??_LCD_Command+1,f
  9507     1329  2B26               	goto	u5437
  9508     132A  2B2B               	nop2
  9509     132B                     l142:
  9510     132B  0008               	return
  9511     132C                     __end_of_LCD_Command:
  9512                           
  9513                           	psect	text32
  9514     11D0                     __ptext32:	
  9515 ;; *************** function _ADC_init *****************
  9516 ;; Defined at:
  9517 ;;		line 4 in file "ADC.c"
  9518 ;; Parameters:    Size  Location     Type
  9519 ;;		None
  9520 ;; Auto vars:     Size  Location     Type
  9521 ;;		None
  9522 ;; Return value:  Size  Location     Type
  9523 ;;                  1    wreg      void 
  9524 ;; Registers used:
  9525 ;;		wreg, status,2, status,0
  9526 ;; Tracked objects:
  9527 ;;		On entry : 0/0
  9528 ;;		On exit  : 0/0
  9529 ;;		Unchanged: 0/0
  9530 ;; Data sizes:     COMMON   BANK0   BANK1   BANK3   BANK2
  9531 ;;      Params:         0       0       0       0       0
  9532 ;;      Locals:         0       0       0       0       0
  9533 ;;      Temps:          0       0       0       0       0
  9534 ;;      Totals:         0       0       0       0       0
  9535 ;;Total ram usage:        0 bytes
  9536 ;; Hardware stack levels used: 1
  9537 ;; Hardware stack levels required when called: 1
  9538 ;; This function calls:
  9539 ;;		Nothing
  9540 ;; This function is called by:
  9541 ;;		_main
  9542 ;; This function uses a non-reentrant model
  9543 ;;
  9544                           
  9545     11D0                     _ADC_init:	
  9546                           ;psect for function _ADC_init
  9547                           
  9548     11D0                     l3277:	
  9549                           ;incstack = 0
  9550                           ; Regs used in _ADC_init: [wreg+status,2+status,0]
  9551                           
  9552                           
  9553                           ;ADC.c: 5:     TRISA = 0x23;
  9554     11D0  3023               	movlw	35
  9555     11D1  1683               	bsf	3,5	;RP0=1, select bank1
  9556     11D2  1303               	bcf	3,6	;RP1=0, select bank1
  9557     11D3  0085               	movwf	5	;volatile
  9558                           
  9559                           ;ADC.c: 6:     ANSEL = 0x13;
  9560     11D4  3013               	movlw	19
  9561     11D5  1683               	bsf	3,5	;RP0=1, select bank3
  9562     11D6  1703               	bsf	3,6	;RP1=1, select bank3
  9563     11D7  0088               	movwf	8	;volatile
  9564     11D8                     l3279:
  9565                           
  9566                           ;ADC.c: 7:     ADCON1bits.ADFM = 1;
  9567     11D8  1683               	bsf	3,5	;RP0=1, select bank1
  9568     11D9  1303               	bcf	3,6	;RP1=0, select bank1
  9569     11DA  179F               	bsf	31,7	;volatile
  9570     11DB                     l3281:
  9571                           
  9572                           ;ADC.c: 8:     ADCON1bits.VCFG0 = 0;
  9573     11DB  121F               	bcf	31,4	;volatile
  9574     11DC                     l3283:
  9575                           
  9576                           ;ADC.c: 9:     ADCON1bits.VCFG1 = 0;
  9577     11DC  129F               	bcf	31,5	;volatile
  9578     11DD                     l3285:
  9579                           
  9580                           ;ADC.c: 10:     ADCON0bits.ADCS = 0b01;
  9581     11DD  1283               	bcf	3,5	;RP0=0, select bank0
  9582     11DE  1303               	bcf	3,6	;RP1=0, select bank0
  9583     11DF  081F               	movf	31,w	;volatile
  9584     11E0  393F               	andlw	-193
  9585     11E1  3840               	iorlw	64
  9586     11E2  009F               	movwf	31	;volatile
  9587     11E3                     l264:
  9588     11E3  0008               	return
  9589     11E4                     __end_of_ADC_init:
  9590                           
  9591                           	psect	text33
  9592     117F                     __ptext33:	
  9593 ;; *************** function _Timer1_ISR *****************
  9594 ;; Defined at:
  9595 ;;		line 33 in file "Timer0.c"
  9596 ;; Parameters:    Size  Location     Type
  9597 ;;		None
  9598 ;; Auto vars:     Size  Location     Type
  9599 ;;		None
  9600 ;; Return value:  Size  Location     Type
  9601 ;;                  1    wreg      void 
  9602 ;; Registers used:
  9603 ;;		None
  9604 ;; Tracked objects:
  9605 ;;		On entry : 0/0
  9606 ;;		On exit  : 0/0
  9607 ;;		Unchanged: 0/0
  9608 ;; Data sizes:     COMMON   BANK0   BANK1   BANK3   BANK2
  9609 ;;      Params:         0       0       0       0       0
  9610 ;;      Locals:         0       0       0       0       0
  9611 ;;      Temps:          2       0       0       0       0
  9612 ;;      Totals:         2       0       0       0       0
  9613 ;;Total ram usage:        2 bytes
  9614 ;; Hardware stack levels used: 1
  9615 ;; This function calls:
  9616 ;;		Nothing
  9617 ;; This function is called by:
  9618 ;;		Interrupt level 1
  9619 ;; This function uses a non-reentrant model
  9620 ;;
  9621                           
  9622     117F                     _Timer1_ISR:	
  9623                           ;psect for function _Timer1_ISR
  9624                           
  9625     117F                     i1l2221:
  9626                           
  9627                           ;Timer0.c: 35:     TMR1=0xFC16;
  9628     117F  30FC               	movlw	252
  9629     1180  1283               	bcf	3,5	;RP0=0, select bank0
  9630     1181  1303               	bcf	3,6	;RP1=0, select bank0
  9631     1182  008F               	movwf	15	;volatile
  9632     1183  3016               	movlw	22
  9633     1184  008E               	movwf	14	;volatile
  9634                           
  9635                           ;Timer0.c: 36:     PORTB = ~PORTB;
  9636     1185  0986               	comf	6,f	;volatile
  9637                           
  9638                           ;Timer0.c: 37:     PIR1bits.TMR1IF=0;
  9639     1186  100C               	bcf	12,0	;volatile
  9640     1187                     i1l293:
  9641     1187  0871               	movf	??_Timer1_ISR+1,w
  9642     1188  008A               	movwf	10
  9643     1189  0E70               	swapf	??_Timer1_ISR,w
  9644     118A  0083               	movwf	3
  9645     118B  0EFE               	swapf	btemp,f
  9646     118C  0E7E               	swapf	btemp,w
  9647     118D  0009               	retfie
  9648     118E                     __end_of_Timer1_ISR:
  9649     007E                     btemp	set	126	;btemp
  9650     007E                     wtemp0	set	126
  9651                           
  9652                           	psect	intentry
  9653     0004                     __pintentry:	
  9654                           ;incstack = 0
  9655                           ; Regs used in _Timer1_ISR: []
  9656                           
  9657     0004                     interrupt_function:
  9658     007E                     saved_w	set	btemp
  9659     0004  00FE               	movwf	btemp
  9660     0005  0E03               	swapf	3,w
  9661     0006  00F0               	movwf	??_Timer1_ISR
  9662     0007  080A               	movf	10,w
  9663     0008  00F1               	movwf	??_Timer1_ISR+1
  9664     0009  160A  118A  297F   	ljmp	_Timer1_ISR
  9665                           
  9666                           	psect	config
  9667                           
  9668                           ;Config register CONFIG1 @ 0x2007
  9669                           ;	Oscillator Selection bits
  9670                           ;	FOSC = INTRC_CLKOUT, INTOSC oscillator: CLKOUT function on RA6/OSC2/CLKOUT pin, I/O fu
      +                          nction on RA7/OSC1/CLKIN
  9671                           ;	Watchdog Timer Enable bit
  9672                           ;	WDTE = OFF, WDT disabled and can be enabled by SWDTEN bit of the WDTCON register
  9673                           ;	Power-up Timer Enable bit
  9674                           ;	PWRTE = OFF, PWRT disabled
  9675                           ;	RE3/MCLR pin function select bit
  9676                           ;	MCLRE = OFF, RE3/MCLR pin function is digital input, MCLR internally tied to VDD
  9677                           ;	Code Protection bit
  9678                           ;	CP = OFF, Program memory code protection is disabled
  9679                           ;	Data Code Protection bit
  9680                           ;	CPD = OFF, Data memory code protection is disabled
  9681                           ;	Brown Out Reset Selection bits
  9682                           ;	BOREN = OFF, BOR disabled
  9683                           ;	Internal External Switchover bit
  9684                           ;	IESO = OFF, Internal/External Switchover mode is disabled
  9685                           ;	Fail-Safe Clock Monitor Enabled bit
  9686                           ;	FCMEN = OFF, Fail-Safe Clock Monitor is disabled
  9687                           ;	Low Voltage Programming Enable bit
  9688                           ;	LVP = OFF, RB3 pin has digital I/O, HV on MCLR must be used for programming
  9689                           ;	In-Circuit Debugger Mode bit
  9690                           ;	DEBUG = 0x1, unprogrammed default
  9691     2007                     	org	8199
  9692     2007  20D5               	dw	8405
  9693                           
  9694                           ;Config register CONFIG2 @ 0x2008
  9695                           ;	Brown-out Reset Selection bit
  9696                           ;	BOR4V = BOR40V, Brown-out Reset set to 4.0V
  9697                           ;	Flash Program Memory Self Write Enable bits
  9698                           ;	WRT = OFF, Write protection off
  9699     2008                     	org	8200
  9700     2008  3FFF               	dw	16383

Data Sizes:
    Strings     148
    Constant    52
    Data        16
    BSS         37
    Persistent  0
    Stack       0

Auto Spaces:
    Space          Size  Autos    Used
    COMMON           14     10      12
    BANK0            80     79      80
    BANK1            80     60      77
    BANK3            96      0      33
    BANK2            96      0       0

Pointer List with Targets:

    strncmp@s2	PTR const unsigned char  size(1) Largest target is 6
		 -> password(CODE[6]), 

    strncmp@s1	PTR const unsigned char  size(1) Largest target is 6
		 -> pass_user(BANK1[6]), 

    frexp@eptr	PTR int  size(1) Largest target is 2
		 -> log@exponent(BANK1[2]), 

    eval_poly@d	PTR const  size(1) Largest target is 36
		 -> log@coeff(CODE[36]), 

    sprintf@f	PTR const unsigned char  size(1) Largest target is 18
		 -> STR_8(CODE[17]), STR_6(CODE[18]), 

    sprintf@sp	PTR unsigned char  size(1) Largest target is 17
		 -> buffer(BANK3[17]), 

    sprintf@ap	PTR void [1] size(1) Largest target is 2
		 -> ?_sprintf(BANK0[2]), 

    LCD_String_xy@msg	PTR const unsigned char  size(2) Largest target is 24
		 -> STR_9(CODE[21]), STR_7(CODE[24]), buffer(BANK3[17]), STR_5(CODE[14]), 
		 -> STR_4(CODE[17]), STR_3(CODE[15]), STR_2(CODE[12]), STR_1(CODE[10]), 

    LCD_String@msg	PTR const unsigned char  size(2) Largest target is 24
		 -> STR_9(CODE[21]), STR_7(CODE[24]), buffer(BANK3[17]), STR_5(CODE[14]), 
		 -> STR_4(CODE[17]), STR_3(CODE[15]), STR_2(CODE[12]), STR_1(CODE[10]), 


Critical Paths under _main in COMMON

    _main->_LCD_String_xy
    _main->_function_eAlarma
    _function_eMonitoreo->_LCD_String_xy
    _function_eBloqueado->_LCD_String_xy
    _function_eAlarma->_LCD_Clear
    _function_clave_Seguridad->_LCD_String_xy
    _function_ambiental->_LCD_String_xy
    _function_ambiental->___xxtofl
    _sprintf->___lwmod
    ___lwmod->___lwdiv
    _log->___fleq
    _log->___flge
    _log->___xxtofl
    _frexp->___fleq
    ___flmul->___xxtofl
    ___fladd->___xxtofl
    ___fltol->___xxtofl
    ___fldiv->___fleq
    ___fldiv->___flge
    ___fldiv->___xxtofl
    _LCD_String_xy->_LCD_String
    _LCD_String->_LCD_Char
    _LCD_Clear->_LCD_Command
    _LCD_Init->_LCD_Command

Critical Paths under _Timer1_ISR in COMMON

    None.

Critical Paths under _main in BANK0

    _function_eMonitoreo->_sprintf
    _function_eBloqueado->_LCD_String_xy
    _function_clave_Seguridad->_keypad_getkey
    _function_ambiental->___fladd
    _sprintf->___lwmod
    _log->___fladd
    _frexp->___fleq
    _eval_poly->___fladd
    ___flmul->_frexp
    ___fladd->___fldiv
    ___fltol->___fladd
    ___fldiv->___flmul

Critical Paths under _Timer1_ISR in BANK0

    None.

Critical Paths under _main in BANK1

    _main->_function_ambiental
    _function_ambiental->___fltol
    _log->_eval_poly
    _eval_poly->___fladd
    ___fltol->_log

Critical Paths under _Timer1_ISR in BANK1

    None.

Critical Paths under _main in BANK3

    None.

Critical Paths under _Timer1_ISR in BANK3

    None.

Critical Paths under _main in BANK2

    None.

Critical Paths under _Timer1_ISR in BANK2

    None.

Call Graph Tables:

 ---------------------------------------------------------------------------------
 (Depth) Function   	        Calls       Base Space   Used Autos Params    Refs
 ---------------------------------------------------------------------------------
 (0) _main                                                 3     3      0   41231
                                             57 BANK1      3     3      0
                           _ADC_init
                          _LCD_Clear
                           _LCD_Init
                      _LCD_String_xy
                           _LED_INIT
                 _function_ambiental
           _function_clave_Seguridad
                   _function_eAlarma
                _function_eBloqueado
                _function_eMonitoreo
                        _keypad_init
 ---------------------------------------------------------------------------------
 (1) _keypad_init                                          0     0      0       0
 ---------------------------------------------------------------------------------
 (1) _function_eMonitoreo                                  8     8      0    3505
                                             23 BANK0      6     6      0
                          _LCD_Clear
                      _LCD_String_xy
                            _sprintf
 ---------------------------------------------------------------------------------
 (1) _function_eBloqueado                                  3     3      0    3329
                                              2 BANK0      3     3      0
                          _LCD_Clear
                      _LCD_String_xy
                       _LED_COLOR_ON
 ---------------------------------------------------------------------------------
 (1) _function_eAlarma                                     5     5      0    1303
                                              7 COMMON     3     3      0
                                              0 BANK0      2     2      0
                          _LCD_Clear
                       _LED_COLOR_ON
 ---------------------------------------------------------------------------------
 (1) _function_clave_Seguridad                             4     4      0    4382
                                             19 BANK0      4     4      0
                           _LCD_Char
                          _LCD_Clear
                        _LCD_Command
                      _LCD_String_xy
                       _LED_COLOR_ON
                      _keypad_getkey
                            _strncmp
 ---------------------------------------------------------------------------------
 (3) _strncmp                                              6     3      3     319
                                              2 COMMON     6     3      3
 ---------------------------------------------------------------------------------
 (2) _keypad_getkey                                       23    23      0     542
                                              2 COMMON     4     4      0
                                              0 BANK0     19    19      0
 ---------------------------------------------------------------------------------
 (2) _LED_COLOR_ON                                         3     1      2    1173
                                              2 COMMON     3     1      2
 ---------------------------------------------------------------------------------
 (1) _function_ambiental                                  23    23      0   26494
                                             36 BANK1     21    21      0
                      _ConversionADC
                          _LCD_Clear
                      _LCD_String_xy
                            ___fladd
                            ___fldiv
                            ___fltol
                           ___xxtofl
                                _log
                            _sprintf
 ---------------------------------------------------------------------------------
 (2) _sprintf                                             27    20      7    1346
                                              4 BANK0     19    12      7
                            ___lwdiv
                            ___lwmod
 ---------------------------------------------------------------------------------
 (3) ___lwmod                                              5     1      4     311
                                              9 COMMON     1     1      0
                                              0 BANK0      4     0      4
                            ___lwdiv (ARG)
 ---------------------------------------------------------------------------------
 (3) ___lwdiv                                              7     3      4     314
                                              2 COMMON     7     3      4
 ---------------------------------------------------------------------------------
 (2) _log                                                  6     2      4   17160
                                             20 BANK1      6     2      4
                            ___fladd
                            ___fldiv (ARG)
                             ___fleq
                             ___flge
                            ___flmul
                           ___xxtofl
                          _eval_poly
                              _frexp
 ---------------------------------------------------------------------------------
 (3) _frexp                                                7     2      5    1022
                                              4 BANK0      7     2      5
                             ___fleq
 ---------------------------------------------------------------------------------
 (4) ___fleq                                              12     4      8     520
                                              2 COMMON     8     0      8
                                              0 BANK0      4     4      0
 ---------------------------------------------------------------------------------
 (3) _eval_poly                                           16     9      7    7399
                                              4 BANK1     16     9      7
                            ___fladd
                            ___fldiv (ARG)
                            ___flmul
 ---------------------------------------------------------------------------------
 (4) ___flmul                                             26    18      8    3853
                                             11 BANK0     26    18      8
                          __Umul8_16
                           ___xxtofl (ARG)
                              _frexp (ARG)
 ---------------------------------------------------------------------------------
 (5) __Umul8_16                                            9     7      2     980
                                              2 COMMON     4     2      2
                                              0 BANK0      5     5      0
 ---------------------------------------------------------------------------------
 (4) ___fladd                                             20    12      8    3022
                                             63 BANK0     16     8      8
                                              0 BANK1      4     4      0
                            ___fldiv (ARG)
                            ___flmul (ARG)
                           ___xxtofl (ARG)
                              _frexp (ARG)
 ---------------------------------------------------------------------------------
 (3) ___xxtofl                                            14    10      4     474
                                              2 COMMON     8     4      4
                                              0 BANK0      6     6      0
 ---------------------------------------------------------------------------------
 (3) ___flge                                              12     4      8     460
                                              2 COMMON     8     0      8
                                              0 BANK0      4     4      0
 ---------------------------------------------------------------------------------
 (2) ___fltol                                             10     6      4     305
                                             26 BANK1     10     6      4
                            ___fladd (ARG)
                            ___fldiv (ARG)
                           ___xxtofl (ARG)
                                _log (ARG)
 ---------------------------------------------------------------------------------
 (2) ___fldiv                                             26    18      8    1577
                                             37 BANK0     26    18      8
                          __Umul8_16 (ARG)
                             ___fleq (ARG)
                             ___flge (ARG)
                            ___flmul (ARG)
                           ___xxtofl (ARG)
                              _frexp (ARG)
 ---------------------------------------------------------------------------------
 (2) _LCD_String_xy                                        5     2      3    2094
                                              7 COMMON     3     0      3
                                              0 BANK0      2     2      0
                        _LCD_Command
                         _LCD_String
 ---------------------------------------------------------------------------------
 (3) _LCD_String                                           2     0      2     217
                                              5 COMMON     2     0      2
                           _LCD_Char
 ---------------------------------------------------------------------------------
 (4) _LCD_Char                                             3     3      0      62
                                              2 COMMON     3     3      0
 ---------------------------------------------------------------------------------
 (2) _LCD_Clear                                            2     2      0      62
                                              5 COMMON     2     2      0
                        _LCD_Command
 ---------------------------------------------------------------------------------
 (2) _ConversionADC                                        3     1      2     250
                                              2 COMMON     3     1      2
 ---------------------------------------------------------------------------------
 (1) _LED_INIT                                             0     0      0       0
 ---------------------------------------------------------------------------------
 (1) _LCD_Init                                             2     2      0      62
                                              5 COMMON     2     2      0
                        _LCD_Command
 ---------------------------------------------------------------------------------
 (3) _LCD_Command                                          3     3      0      62
                                              2 COMMON     3     3      0
 ---------------------------------------------------------------------------------
 (1) _ADC_init                                             0     0      0       0
 ---------------------------------------------------------------------------------
 Estimated maximum stack depth 5
 ---------------------------------------------------------------------------------
 (Depth) Function   	        Calls       Base Space   Used Autos Params    Refs
 ---------------------------------------------------------------------------------
 (6) _Timer1_ISR                                           2     2      0       0
                                              0 COMMON     2     2      0
 ---------------------------------------------------------------------------------
 Estimated maximum stack depth 6
 ---------------------------------------------------------------------------------

 Call Graph Graphs:

 _main (ROOT)
   _ADC_init
   _LCD_Clear
     _LCD_Command
   _LCD_Init
     _LCD_Command
   _LCD_String_xy
     _LCD_Command
     _LCD_String
       _LCD_Char
   _LED_INIT
   _function_ambiental
     _ConversionADC
     _LCD_Clear
     _LCD_String_xy
     ___fladd
       ___fldiv (ARG)
         __Umul8_16 (ARG)
         ___fleq (ARG)
         ___flge (ARG)
         ___flmul (ARG)
           __Umul8_16
           ___xxtofl (ARG)
           _frexp (ARG)
             ___fleq
         ___xxtofl (ARG)
         _frexp (ARG)
       ___flmul (ARG)
       ___xxtofl (ARG)
       _frexp (ARG)
     ___fldiv
     ___fltol
       ___fladd (ARG)
       ___fldiv (ARG)
       ___xxtofl (ARG)
       _log (ARG)
         ___fladd
         ___fldiv (ARG)
         ___fleq (ARG)
         ___flge (ARG)
         ___flmul (ARG)
         ___xxtofl (ARG)
         _eval_poly (ARG)
           ___fladd
           ___fldiv (ARG)
           ___flmul (ARG)
         _frexp (ARG)
     ___xxtofl
     _log
     _sprintf
       ___lwdiv
       ___lwmod
         ___lwdiv (ARG)
   _function_clave_Seguridad
     _LCD_Char
     _LCD_Clear
     _LCD_Command
     _LCD_String_xy
     _LED_COLOR_ON
     _keypad_getkey
     _strncmp
   _function_eAlarma
     _LCD_Clear
     _LED_COLOR_ON
   _function_eBloqueado
     _LCD_Clear
     _LCD_String_xy
     _LED_COLOR_ON
   _function_eMonitoreo
     _LCD_Clear
     _LCD_String_xy
     _sprintf
   _keypad_init

 _Timer1_ISR (ROOT)

 Address spaces:
Name               Size   Autos  Total    Cost      Usage
BANK3               60      0      21       9       34.4%
BITBANK3            60      0       0       8        0.0%
SFR3                 0      0       0       4        0.0%
BITSFR3              0      0       0       4        0.0%
BANK2               60      0       0      11        0.0%
BITBANK2            60      0       0      10        0.0%
SFR2                 0      0       0       5        0.0%
BITSFR2              0      0       0       5        0.0%
BANK1               50     3C      4D       7       96.2%
BITBANK1            50      0       0       6        0.0%
SFR1                 0      0       0       2        0.0%
BITSFR1              0      0       0       2        0.0%
BANK0               50     4F      50       5      100.0%
BITBANK0            50      0       0       4        0.0%
SFR0                 0      0       0       1        0.0%
BITSFR0              0      0       0       1        0.0%
COMMON               E      A       C       1       85.7%
BITCOMMON            E      0       0       0        0.0%
CODE                 0      0       0       0        0.0%
DATA                 0      0      CA      12        0.0%
ABS                  0      0      CA       3        0.0%
NULL                 0      0       0       0        0.0%
STACK                0      0       0       2        0.0%
EEDATA             100      0       0       0        0.0%


Microchip Technology PIC Macro Assembler V2.41 build 20230208172133 
Symbol Table                                                                                   Fri Nov 03 22:06:18 2023

                    ___fldiv@aexp 005E                      ___fldiv@bexp 005D                                 pc 0002  
                    ___fldiv@sign 0056                      ?_LCD_Command 0070                                l98 1758  
     function_clave_Seguridad@key 0036                                fsr 0004                       ?_LCD_String 0075  
       ?_function_clave_Seguridad 0070               __Umul8_16@word_mpld 0022                               l104 17FF  
                             l112 142C                               l122 0FFF                               l107 12F5  
                             l142 132B                               l118 15D0                               l151 124A  
                             l231 0B2D                               l145 1361                               l139 12C5  
                             l244 117E                               l156 1272                               l172 119C  
                             l270 1224                               l406 0C21                               l159 11AC  
                             l247 1203                               l264 11E3                               l267 1219  
                             l603 153B                               l269 121D                               l606 1550  
                             l703 03F7                               l707 04B7                               l724 0597  
                             l716 0671                               l820 129B                               l580 1467  
                             l709 0485                               l805 02E9                               l581 147C  
                             l734 05ED                               l584 15EF                               l728 05C4  
                             l761 0DF0                               l746 0671                               l818 1289  
                             l682 13E1                               l906 07FB                               l587 165B  
                             l843 1699                               l579 144B                               l596 1550  
                             l588 1674                               l692 139D                               l781 0DDC  
                             l845 172E                               l870 07B5                               l775 0D6A  
                             l759 0C78                               l856 16F8                               l857 1704  
                             l882 0A4B                               l799 0379                               l888 14D8  
                             _GIE 005F                               _RC0 0038                               _RC1 0039  
                             _RC2 003A                               _RD0 0040                               _RD1 0041  
                             _RE0 0048                               _RE1 0049                               _RE2 004A  
             function_ambiental@a 00C7                               _idx 006F                               _log 0672  
                             fsr0 0004                               indf 0000                      ___flmul@aexp 0039  
                    ___flmul@bexp 003E                      ___flmul@sign 0038                      ___flmul@temp 0043  
                    ___flmul@prod 003F                       LCD_Char@dat 0074                      ___fltol@exp1 00C3  
                            l3001 0BAB                              l3011 0BC3                              l3003 0BB1  
                            l2301 147B                              l3013 0BF1                              l3005 0BB6  
                            l3021 0C09                              l3111 0C27                              l3103 1530  
                            l2311 038F                              l3015 0BF6                              l3007 0BBA  
                            l3023 0C19                              l3041 121E                              l3033 1204  
                            l3201 0D3A                              l3121 0C3A                              l3113 0C2B  
                            l3105 1540                              l2401 04AF                              l2321 03AA  
                            l2313 0392                              l2305 037A                              l3025 0C1D  
                            l3017 0BFA                              l3009 0BC0                              l3035 1210  
                            l3211 0D4F                              l3203 0D3B                              l3131 0C52  
                            l3123 0C42                              l3115 0C2F                              l3107 1545  
                            l2411 04E4                              l2403 04BB                              l2331 03C2  
                            l2315 0399                              l2323 03AC                              l2307 0381  
                            l3019 0C00                              l3037 1211                              l3221 0D74  
                            l3213 0D53                              l3205 0D44                              l3141 0C65  
                            l3133 0C56                              l3125 0C43                              l3117 0C30  
                            l3109 0C22                              l2501 0668                              l2421 0501  
                            l2413 04E8                              l2405 04C0                              l2341 03DF  
                            l2333 03CA                              l2325 03B6                              l2317 039E  
                            l2309 0389                              l3039 1216                              l3231 0DB2  
                            l3223 0D82                              l3215 0D67                              l3207 0D4A  
                            l3151 0C8C                              l3143 0C6D                              l3135 0C5A  
                            l3119 0C35                              l3127 0C45                              l3071 14D9  
                            l2503 066E                              l2431 056B                              l2423 0504  
                            l2415 04EE                              l2351 0403                              l2343 03E9  
                            l2335 03D0                              l2327 03BB                              l2319 03A8  
                            l3241 0DE0                              l3233 0DC0                              l3225 0D86  
                            l3209 0D4E                              l3153 0C90                              l3145 0C6E  
                            l3137 0C5B                              l3129 0C4D                              l3081 1501  
                            l3073 14E4                              l2441 05A0                              l2433 0571  
                            l2425 050E                              l2417 04F9                              l2409 04CB  
                            l2361 0413                              l2353 0407                              l2345 03EB  
                            l2337 03D3                              l2329 03C1                              l4017 0B5F  
                            l3243 0DE4                              l3235 0DCF                              l3227 0D9F  
                            l3219 0D6F                              l3171 0CD1                              l3163 0CA7  
                            l3139 0C60                              l3147 0C70                              l3083 1509  
                            l2451 05C1                              l2443 05A7                              l2435 0573  
                            l2419 04FB                              l2427 0515                              l2371 042B  
                            l2363 0417                              l2355 0409                              l2339 03DA  
                            l2347 03ED                              l3245 0DE6                              l3237 0DD3  
                            l3229 0DA5                              l3181 0CEF                              l3173 0CD3  
                            l3165 0CB9                              l3149 0C80                              l3157 0C99  
                            l3093 1517                              l3085 150B                              l3077 14ED  
                            l2453 05CA                              l2461 05D6                              l2437 0578  
                            l2429 052D                              l2381 0441                              l2373 042F  
                            l2365 041D                              l2357 040B                              l2349 03FF  
                            l2293 142D                              l2701 13A9                              l3255 1178  
                            l3247 0DEA                              l3239 0DDB                              l3175 0CD8  
                            l3183 0CF8                              l3191 0D1D                              l3167 0CC1  
                            l3159 0C9E                              l3095 1520                              l3087 150F  
                            l3079 1500                              l2455 05CD                              l2447 05B2  
                            l2439 0589                              l2463 05DB                              l2391 0494  
                            l2375 0433                              l2367 0421                              l2359 040D  
                            l2383 0447                              l3511 127F                              l2295 1443  
                            l2711 13CF                              l2703 13B0                              l3271 118E  
                            l3281 11DB                              l3521 132D                              l3193 0D23  
                            l3185 0D0A                              l3177 0CEA                              l3169 0CC9  
                            l3097 1529                              l2481 062F                              l2473 05F4  
                            l2465 05DE                              l2457 05CF                              l2449 05BB  
                            l2393 0496                              l2385 044A                              l2377 0439  
                            l2369 0425                              l3513 1283                              l3601 0159  
                            l2297 145F                              l2713 13D0                              l2705 13B4  
                            l2721 1362                              l3273 1198                              l3283 11DC  
                            l3531 133C                              l3523 1336                              l3195 0D2B  
                            l3187 0D0B                              l3179 0CEE                              l2491 0650  
                            l2475 05FB                              l2483 0633                              l2467 05E2  
                            l2459 05D4                              l2395 049C                              l2387 0467  
                            l2379 043D                              l3515 1292                              l3507 1276  
                            l3611 01C6                              l3603 0167                              l2299 1479  
                            l2715 13D7                              l2707 13B8                              l2731 137C  
                            l2723 136A                              l3275 1199                              l3285 11DD  
                            l3277 11D0                              l3701 131F                              l3533 1345  
                            l3525 1337                              l3197 0D2D                              l3189 0D19  
                            l2493 0651                              l2485 063A                              l2477 060B  
                            l2469 05E8                              l2397 049F                              l2389 0489  
                            l3517 1297                              l3509 1278                              l3621 026D  
                            l3613 01E3                              l3605 0184                              l3541 0035  
                            l2709 13C9                              l2717 13DD                              l2733 1386  
                            l2725 136D                              l2901 0AD7                              l3279 11D8  
                            l3535 1353                              l3527 1338                              l3703 1225  
                            l3199 0D36                              l2751 16A1                              l2743 1678  
                            l2495 0655                              l2487 063F                              l2479 060F  
                            l2399 04A9                              l3631 02B9                              l3623 0295  
                            l3615 020E                              l3607 0192                              l3551 0048  
                            l3543 003A                              l3711 147D                              l2735 138C  
                            l2727 1374                              l2911 0AE7                              l2903 0AD9  
                            l3537 1354                              l3529 1339                              l3705 1226  
                            l2681 160B                              l2761 16BA                              l2745 167D  
                            l2497 0659                              l2489 0649                              l3641 02CE  
                            l3633 02BA                              l3625 029E                              l3617 021C  
                            l3609 01AF                              l3561 0064                              l3553 004D  
                            l3545 003E                              l3721 14C6                              l3713 1498  
                            l2737 1393                              l2729 1378                              l2921 0B03  
                            l2905 0ADE                              l2913 0AEB                              l2841 0A4C  
                            l3801 173A                              l3539 1355                              l3707 1234  
                            l2691 1673                              l2683 160F                              l2675 15D1  
                            l2771 16E3                              l2763 16C1                              l2755 16AA  
                            l2747 1681                              l2499 065F                              l3651 02F3  
                            l3643 02D2                              l3635 02C3                              l3627 02AC  
                            l3619 0247                              l3571 0077                              l3563 0068  
                            l3555 0055                              l3547 0042                              l3731 0972  
                            l3723 14D3                              l3715 14A0                              l2739 1399  
                            l2931 0B13                              l2923 0B05                              l2915 0AF2  
                            l2907 0AE0                              l2843 0A62                              l3811 1760  
                            l3803 173A                              l3709 123A                              l3741 124E  
                            l2685 1633                              l2677 15E7                              l2781 171C  
                            l2773 16EE                              l2765 16C5                              l2757 16AD  
                            l2749 1691                              l3661 0331                              l3653 0301  
                            l3645 02E6                              l3629 02B5                              l3637 02C9  
                            l3581 0093                              l3573 007F                              l3565 006C  
                            l3557 0057                              l3549 0043                              l3733 09A1  
                            l3725 14D7                              l2925 0B0A                              l2917 0AFA  
                            l2933 0B17                              l2909 0AE5                              l2861 0A80  
                            l2853 0A67                              l2845 0A62                              l2941 07B7  
                            l3821 1786                              l3813 1765                              l3805 1742  
                            l3901 13FB                              l3751 1263                              l3743 124E  
                            l2687 1637                              l2679 1603                              l2783 1721  
                            l2775 16F2                              l2767 16D3                              l2759 16B1  
                            l3671 0363                              l3663 033C                              l3655 0305  
                            l3639 02CD                              l3591 00D2                              l3575 0081  
                            l3567 006D                              l3559 005F                              l3735 0A3D  
                            l3727 14D8                              l3719 14A9                              l2695 139E  
                            l3911 0DFF                              l2935 0B1D                              l2927 0B0C  
                            l2919 0AFC                              l2871 0A90                              l2863 0A82  
                            l2855 0A6F                              l2847 0A65                              l2951 07E3  
                            l2943 07B8                              l3831 17B9                              l3823 178E  
                            l3815 176B                              l3807 1747                              l3903 1418  
                            l3753 1269                              l3745 1254                              l2689 1671  
                            l2785 1725                              l2777 16FC                              l2769 16DC  
                            l3673 0367                              l3665 034B                              l3657 031E  
                            l3649 02EE                              l3593 00EE                              l3585 009C  
                            l3577 0089                              l3569 0072                              l3737 0A43  
                            l3761 0672                              l2697 13A0                              l2961 0B33  
                            l3921 0F15                              l3913 0E0A                              l2937 0B2A  
                            l2929 0B11                              l2881 0AAB                              l2865 0A87  
                            l2857 0A77                              l2873 0A94                              l2945 07C0  
                            l2953 07EB                              l3841 17DE                              l3833 17BC  
                            l3825 17A0                              l3817 1773                              l3809 1752  
                            l3905 1425                              l3691 1303                              l3683 12F7  
                            l3755 119D                              l3747 1258                              l2787 1726  
                            l2779 1706                              l3675 0368                              l3667 0355  
                            l3659 0324                              l3595 0118                              l3587 00AA  
                            l3579 008E                              l3763 068D                              l2699 13A6  
                            l2971 0B4C                              l2963 0B36                              l3931 0F8F  
                            l3923 0F5B                              l3915 0E1D                              l2891 0ABB  
                            l2883 0AAD                              l2875 0A9A                              l2867 0A89  
                            l2859 0A79                              l2955 07F9                              l2947 07D0  
                            l3843 17E7                              l3835 17CB                              l3827 17A5  
                            l3819 1777                              l3907 142A                              l3851 1556  
                            l3693 1306                              l3685 1300                              l3757 11A3  
                            l3749 125F                              l3669 0357                              l3677 036D  
                            l3597 0134                              l3589 00B7                              l3773 06C6  
                            l2981 0B76                              l2965 0B3C                              l3941 0FE1  
                            l3933 0F94                              l3925 0F6A                              l3917 0E75  
                            l3909 0DF1                              l2885 0AB2                              l2877 0AA2  
                            l2893 0ABF                              l2869 0A8E                              l3845 17ED  
                            l3829 17B0                              l3837 17CE                              l3861 159C  
                            l3853 155C                              l3695 130F                              l3687 1301  
                            l3791 12B3                              l3783 129C                              l3679 0371  
                            l3599 0150                              l3775 072D                              l3767 069C  
                            l2983 0B7A                              l2975 0B4D                              l2967 0B41  
                            l2959 0B31                              l3943 0FEC                              l3935 0FC2  
                            l3927 0F75                              l3919 0EBF                              l3759 11E5  
                            l2895 0AC6                              l2887 0AB4                              l2879 0AA4  
                            l3839 17D3                              l3847 17FD                              l3871 15BD  
                            l3863 15A1                              l3855 1562                              l3951 08E8  
                            l3697 131D                              l3689 1302                              l3793 12B9  
                            l3785 129F                              l3777 0733                              l3769 06B7  
                            l2993 0B85                              l2985 0B7E                              l2977 0B6A  
                            l2969 0B45                              l3945 0FEE                              l3937 0FCD  
                            l3929 0F84                              l2897 0ACE                              l2889 0AB9  
                            l3881 12D6                              l3873 15BF                              l3865 15A8  
                            l3857 156A                              l3849 1551                              l3961 0901  
                            l3953 08F2                              l3699 131E                              l3795 12BF  
                            l3787 12A7                              l3779 0750                              l2987 0B83  
                            l2979 0B72                              l3947 0FFD                              l3939 0FDC  
                            l2899 0AD0                              l3891 13E2                              l3883 12DE  
                            l3875 15CE                              l3867 15AD                              l3859 1591  
                            l3971 092F                              l3963 0907                              l3955 08F7  
                            l3789 12AD                              l2997 0BA1                              l3797 172F  
                            l3885 12EC                              l3877 12C6                              l3869 15B2  
                            l3981 0945                              l3973 0934                              l3965 090D  
                            l3957 08FC                              l3949 08E4                              ?_log 00B4  
                            l2999 0BA5                              l3799 1732                              l3887 12F1  
                            l3879 12CB                              l3991 0963                              l3983 094B  
                            l3975 0935                              l3967 0915                              l3959 0900  
                            l3897 13E6                              l3889 12F4                              l3993 0969  
                            l3985 0951                              l3977 093A                              l3969 0920  
                            l3899 13EE                              l3987 0957                              l3979 0940  
                            l3989 095D                              STR_1 08CE                              STR_2 08C2  
                            STR_3 08A5                              STR_4 0883                              STR_5 08B4  
                            STR_6 0871                              STR_7 0844                              STR_8 0894  
                            STR_9 085C                              u2300 1443                              u2301 1442  
                            u2310 145F                              u2311 145E                              u4000 150F  
                            u3200 160F                              u2400 03FF                              u2320 1479  
                            u4001 150E                              u3201 160E                              u2401 03FE  
                            u2321 1478                              u4010 1516                              u2410 0403  
                            u2330 038F                              u4011 1515                              u3211 161E  
                            u2411 0402                              u2331 038E                              u4100 0C3A  
                            u3220 1637                              u3212 161F                              u2500 04C0  
                            u2420 0467                              u2340 0399                              u4101 0C39  
                            u3221 1636                              u3213 1624                              u2501 04BF  
                            u2421 0466                              u2341 0398                              u2325 1475  
                            u4110 0C5A                              u4030 1528                              u3214 1625  
                            u2430 0472                              u2350 039E                              u3310 13DD  
                            u4111 0C59                              u4031 1527                              u3231 1646  
                            u3215 162A                              u2511 04D6                              u2431 0470  
                            u2351 039D                              u3311 13DC                              u4120 0C60  
                            u4040 152F                              u3240 1671                              u3232 1647  
                            u3216 162B                              u3400 16A1                              u2600 05A0  
                            u2520 04E8                              u2512 04DD                              u2440 0473  
                            u2360 03C1                              u3320 136A                              u4121 0C5F  
                            u4041 152E                              u4025 1518                              u3241 1670  
                            u3233 164C                              u3401 16A0                              u2601 059F  
                            u2521 04E7                              u2513 04E4                              u2425 0463  
                            u2361 03C0                              u3305 13D1                              u3321 1369  
                            u4210 0D0A                              u4130 0C65                              u3234 164D  
                            u2610 05A7                              u2530 04EE                              u2450 0489  
                            u2370 03D0                              u3250 13A6                              u5010 11F6  
                            u4211 0D09                              u4131 0C64                              u3235 1652  
                            u2611 05A6                              u2531 04ED                              u2451 0488  
                            u2371 03CF                              u3251 13A5                              u5011 11F2  
                            u4300 0D6E                              u4220 0D23                              u4140 0C80  
                            u4060 1540                              u3236 1653                              u3180 15E7  
                            u3500 1721                              u3420 16C0                              u2700 05FB  
                            u2540 0501                              u2460 049C                              u2380 03DA  
                            u3340 137C                              u5004 11EF                              u5100 17A0  
                            u4301 0D6D                              u4221 0D22                              u4205 0CF1  
                            u4141 0C7F                              u4061 153F                              u3245 166D  
                            u3181 15E6                              u3501 1720                              u3421 16BF  
                            u2701 05FA                              u2541 0500                              u2461 049B  
                            u2381 03D9                              u3341 137B                              u5101 179F  
                            u4310 0D74                              u4230 0D2B                              u4150 0C9E  
                            u4070 1545                              u3190 1603                              u3510 1725  
                            u2710 060F                              u2630 05C1                              u2390 03DF  
                            u3270 13B8                              u3350 1386                              u5030 1200  
                            u5110 15A1                              u4311 0D73                              u4231 0D2A  
                            u4215 0D06                              u4151 0C9D                              u4071 1544  
                            u4055 1532                              u3191 1602                              u3511 1724  
                            u3415 16B2                              u2711 060E                              u2631 05C0  
                            u2391 03DE                              u3271 13B7                              u3351 1385  
                            u3335 136E                              u5031 11FC                              u5111 15A0  
                            u4320 0D86                              u4160 0CD8                              u4080 0C2F  
                            u3440 16E2                              u2720 061E                              u2640 05CA  
                            u2560 052D                              u2480 04B7                              u5024 11F9  
                            u5120 15A8                              u5200 0969                              u4321 0D85  
                            u4161 0CD7                              u4081 0C2E                              u3441 16E1  
                            u2641 05C9                              u2625 05B4                              u2561 052C  
                            u2481 04B6                              u3265 13AA                              u5121 15A7  
                            u5201 0968                              u4330 0D95                              u4250 0D3A  
                            u4090 0C35                              u2730 062F                              u2650 05D4  
                            u2490 04BB                              u5050 068D                              u3290 13C9  
                            u3370 1399                              u5130 15AD                              u4251 0D39  
                            u4091 0C34                              u3435 16D4                              u2731 062E  
                            u2651 05D3                              u2571 0544                              u2563 0529  
                            u2555 0507                              u2491 04BA                              u2475 04A2  
                            u5051 068C                              u3291 13C8                              u3371 1398  
                            u3355 1382                              u5131 15AC                              u4340 0DB2  
                            u3460 16F2                              u3380 167D                              u2740 063A  
                            u2660 05DB                              u2580 0558                              u2572 0545  
                            u5060 06B7                              u5044 1203                              u3700 0AAA  
                            u5140 1425                              u4341 0DB1                              u4245 0D2F  
                            u3461 16F1                              u3381 167C                              u2741 0639  
                            u2725 0619                              u2661 05DA                              u2581 0559  
                            u2573 054A                              u5061 06B6                              u3285 13B9  
                            u3365 138D                              u3701 0AA9                              u5141 1424  
                            u4350 0DCF                              u4270 0D4E                              u4190 0CEE  
                            u3470 16F8                              u3390 1681                              u2750 063F  
                            u2670 05E2                              u2590 0578                              u2582 055E  
                            u2574 054B                              u4510 1283                              u5150 0FDC  
                            u3710 0AB1                              u3630 0A54                              u5070 1742  
                            u4351 0DCE                              u4335 0D90                              u4271 0D4D  
                            u4191 0CED                              u4175 0CDA                              u3471 16F7  
                            u3455 16E7                              u3391 1680                              u2751 063E  
                            u2671 05E1                              u2591 0577                              u2583 055F  
                            u2575 0550                              u4511 1282                              u3295 13C5  
                            u5151 0FDB                              u3711 0AB0                              u5071 1741  
                            u4360 0DE4                              u4280 0D53                              u3480 16FC  
                            u2760 0650                              u2680 05E8                              u2576 0551  
                            u4600 0077                              u3800 0B02                              u3720 0AB8  
                            u3640 0A6F                              u5080 1765                              u5160 093A  
                            u4361 0DE3                              u4345 0DAE                              u4281 0D52  
                            u4265 0D3D                              u4185 0CE3                              u3481 16FB  
                            u2761 064F                              u2681 05E7                              u4601 0076  
                            u3801 0B01                              u3721 0AB7                              u3641 0A6E  
                            u5081 1764                              u5145 1421                              u5161 0939  
                            u5217 0928                              u4290 0D67                              u3490 1711  
                            u2770 0655                              u2690 05F3                              u4530 1297  
                            u4610 008E                              u3810 0B09                              u3730 0ABF  
                            u3650 0A7F                              u5090 178E                              u5170 0945  
                            u4355 0DCB                              u4291 0D66                              u2771 0654  
                            u2691 05F2                              u4531 1296                              u4611 008D  
                            u5155 0FD8                              u3811 0B08                              u3731 0ABE  
                            u5307 0A9E                              u3651 0A7E                              u5091 178D  
                            u5227 15C7                              u5171 0944                              _PEIE 005E  
                            u2780 066E                              u4620 0093                              u3900 0BA0  
                            u3820 0B10                              u3740 0AC6                              u3660 0A86  
                            u5180 0951                              u2781 066D                              u4525 128A  
                            u4621 0092                              u3901 0B9F                              u3821 0B0F  
                            u5317 0ACA                              u3741 0AC5                              u3661 0A85  
                            u5237 12E6                              u5181 0950                              u4550 0042  
                            u3910 0BAB                              u3830 0B17                              u3750 0AD6  
                            u3670 0A8D                              u5190 095D                              u5407 1213  
                            u3495 170C                              u4711 01D5                              u4631 00E0  
                            u4551 0041                              u3911 0BAA                              u3831 0B16  
                            u5327 0AF6                              u3751 0AD5                              u3671 0A8C  
                            u5247 13F4                              u5191 095C                              u4800 02B9  
                            u4712 01DC                              u4632 00E7                              u4560 0048  
                            u3920 0BB1                              u3840 0B2A                              u3760 0ADD  
                            u3680 0A94                              u5417 12A3                              u4545 1348  
                            u4801 02B8                              u4721 0200                              u4713 01E3  
                            u4705 01B1                              u4641 00FC                              u4633 00EE  
                            u4561 0047                              u3921 0BB0                              u3905 0B9C  
                            u5337 0E05                              u3841 0B29                              u3761 0ADC  
                            u3681 0A93                              u5257 1409                              u4722 0207  
                            u4642 0103                              u4570 004D                              u3930 0C09  
                            u3770 0AE4                              u3690 0A9A                              u3850 07C0  
                            u5427 130A                              u4731 022B                              u4723 020E  
                            u4651 0126                              u4643 010A                              u4571 004C  
                            u3931 0C08                              u5347 0F70                              u3771 0AE3  
                            u3691 0A99                              u3851 07BF                              u5267 177F  
                            u4900 034B                              u4820 02CD                              u4740 0253  
                            u4732 0232                              u4652 012D                              u4580 006C  
                            u3940 0C19                              u3780 0AEB                              u3860 07D0  
                            u5437 1326                              u4901 034A                              u4821 02CC  
                            u4733 0239                              u4661 0142                              u4653 0134  
                            u4581 006B                              u3941 0C18                              u5357 0F8A  
                            u3845 0B26                              u3781 0AEA                              u3861 07CF  
                            u5277 17C4                              u3950 121D                              u4910 0367  
                            u4830 02D2                              u4662 0149                              u4590 0072  
                            u3790 0AF2                              u3870 07F9                              u3951 121C  
                            u4911 0366                              u4831 02D1                              u4815 02BC  
                            u4751 025F                              u4663 0150                              u4591 0071  
                            u5367 0FF6                              u3791 0AF1                              u3871 07F8  
                            u5287 17F5                              u4840 02E6                              u4760 027B  
                            u4752 0266                              u3880 0B3C                              u5377 1340  
                            u4905 0347                              u4841 02E5                              u4753 026D  
                            u4745 024E                              u4681 0176                              u3881 0B3B  
                            u5297 0A73                              u4930 124A                              u4850 02ED  
                            u4682 017D                              u3890 0B7A                              u5387 135C  
                            u4931 1249                              u4851 02EC                              u4771 0287  
                            u4691 01A1                              u4683 0184                              u4675 0152  
                            u3891 0B79                              u3980 14E4                              u4860 02F3  
                            u4772 028E                              u4692 01A8                              u4940 1498  
                            u4925 1312                              u5397 11A7                              u3981 14E3  
                            u4861 02F2                              u4773 0295                              u4765 0276  
                            u4693 01AF                              u4941 1497                              u3990 14FB  
                            u4870 0305                              u4871 0304                              u4880 0314  
                            u4785 0297                              u4890 0331                              u4970 0A43  
                            u3995 14F6                              u4891 0330                              u4795 02AE  
                            u4971 0A42                              u4955 0977                              u4980 1254  
                            u4981 1253                              u4885 030F                              u4965 09AA  
                            u4990 11EC                              u4895 032D                              u4991 11E8  
                            _TMR1 000E                              _main 08E4                    ??_LED_COLOR_ON 0074  
                            btemp 007E                              log@x 00B4                              start 000C  
                __end_of_ADC_init 11E4                   ___fldiv@new_exp 0057                     _LCD_String_xy 124B  
                           ??_log 007A                  __end_of_LED_INIT 117F                  __end_of_LCD_Char 1362  
                __end_of_LCD_Init 12C6                     ___fltol@sign1 00C2                   __end_of___fladd 0672  
                           ?_main 0070                   __end_of___fldiv 0DF1                   __end_of___flmul 037A  
                 __end_of___fltol 1551                             _ANSEL 0188                             _T1CON 0010  
                 __end_of___lwdiv 13E2                   __end_of___lwmod 139E                             i1l293 1187  
                           _PORTB 0006                             _PORTD 0008                             _TRISA 0085  
                           _TRISB 0086                             _TRISC 0087                             _TRISD 0088  
                           _TRISE 0089                   __end_of_dpowers 081A                      ?_keypad_init 0070  
                           _frexp 147D                             _errno 00DC                   ??_ConversionADC 0074  
                           pclath 000A                             status 0003                             wtemp0 007E  
                 __end_of_sprintf 0C22                   __end_of_strncmp 07FC                    ?_LCD_String_xy 0077  
                 __initialization 000F                       log@exponent 00B8                      __end_of_main 0972  
                          ??_main 00D9                 __end_of_LCD_Clear 11AD               keypad_getkey@letras 0020  
     __end_of_function_eBloqueado 12F6                            ?_frexp 0024                            _ADRESH 001E  
                          _ADRESL 009E                            _ANSELH 0189                  LCD_String_xy@msg 0078  
                LCD_String_xy@pos 0077                  LCD_String_xy@row 0020                            i1l2221 117F  
                          _OSCCON 008F                            _TMR1IE 0460                            _TMR1IF 0060  
                          _TMR1ON 0080                 function_eAlarma@i 0020                  __end_of___xxtofl 172F  
                          _Estado 007B                        _Timer1_ISR 117F          __end_of_function_eAlarma 142D  
                          ___flge 15D1                            ___fleq 142D                         ??___fladd 0067  
                       ??___fldiv 004D                         ??___flmul 0033                         ??___fltol 00BE  
                       ??___lwdiv 0076                         ??___lwmod 0079                            _buffer 0190  
     __end_of_function_eMonitoreo 15D1                  __end_of_password 0844              __end_of_LED_COLOR_ON 1204  
                 _var_sensor_Temp 00E2                   _var_sensor_hall 00E6                            saved_w 007E  
                       ?_ADC_init 0070                         ??_sprintf 002B                         ??_strncmp 0075  
                      ___flge@ff1 0072                        ___flge@ff2 0076                      ___xxtofl@arg 0022  
                    ___xxtofl@exp 0021                      ___xxtofl@val 0072                        ___fleq@ff1 0072  
                      ___fleq@ff2 0076                  __end_oflog@coeff 083E                         ?_LED_INIT 0070  
                       ?_LCD_Char 0070           __end_of__initialization 0031                         ?_LCD_Init 0070  
                 ??_LCD_String_xy 007A                      eval_poly@res 00B0                        ___fltol@f1 00BA  
                  __pcstackCOMMON 0070                      __pidataBANK3 11AD                     __end_of_frexp 14D9  
                    ??_LCD_String 0077                    _OPTION_REGbits 0081                        ??_ADC_init 0072  
                         ??_frexp 0029                        __pbssBANK0 006F                        __pbssBANK1 00DC  
                      __pbssBANK3 0190                        ??_LED_INIT 0072                        ??_LCD_Char 0072  
                      ??_LCD_Init 0075                __end_of_LCD_String 124B                 __end_of__Umul8_16 129C  
                     ?_Timer1_ISR 0070                        __pmaintext 08E4                           ?___flge 0072  
                         ?___fleq 0072                        __pintentry 0004                     _keypad_getkey 0A4C  
                       ?___xxtofl 0072                        __stringtab 0800                     LCD_String@msg 0075  
        _function_clave_Seguridad 172F                           ___fladd 037A                           ___fldiv 0C22  
                         ___flmul 0035                           ___fltol 14D9                           ___lwdiv 139E  
                         ___lwmod 1362                 __end_of_eval_poly 0A4C                           __ptext1 118E  
                         __ptext2 1551                           __ptext3 12C6                           __ptext4 13E2  
                         __ptext5 172F                           __ptext6 07B6                           __ptext7 0A4C  
                         __ptext8 11E4                           __ptext9 0DF1                    ?_keypad_getkey 0070  
         function_ambiental@tempC 00D7                           _dpowers 0810                        ??___xxtofl 0076  
                       _LCD_Clear 119D                   LED_COLOR_ON@red 0074                           _sprintf 0B2E  
                         clrloop0 08DD                           _strncmp 07B6              end_of_initialization 0031  
           __end_of_ConversionADC 1225                    LCD_Command@cmd 0074                  _var_sensor_Photo 00E0  
                    _LED_COLOR_ON 11E4                  _var_sensor_flame 00DE                  _var_sensor_metal 00E5  
               ?_function_eAlarma 0070                ??_function_eAlarma 0077                       ___fladd@grs 00A3  
                   ___xxtofl@sign 0020                        ?_LCD_Clear 0070                       ___fldiv@grs 0059  
                     ___fldiv@rem 0052                       ___flmul@grs 003A                     ??_LCD_Command 0072  
                  __end_of___flge 1675                    __end_of___fleq 147D                   ??_keypad_getkey 0072  
              keypad_getkey@F1296 01A1               start_initialization 000F                        eval_poly@d 00A8  
                      eval_poly@n 00A9                        eval_poly@x 00A4                       __end_of_log 07B6  
                      frexp@value 0024                keypad_getkey@valor 0030             __end_of_LCD_String_xy 1273  
                    ??_Timer1_ISR 0070                          ??___flge 0020                          ??___fleq 0020  
                      init_fetch0 11BD                         __Umul8_16 1273                       __pdataBANK3 01A1  
                       ___fladd@a 0063                         ___fladd@b 005F                         ___fldiv@a 0045  
                       ___fldiv@b 0049               __end_of_LCD_Command 132C                         ___flmul@a 002F  
                       ___flmul@b 002B                       __pbssCOMMON 007A                         ___latbits 0002  
                   __pcstackBANK0 0020                     __pcstackBANK1 00A0                       ??_LCD_Clear 0075  
                   ??_keypad_init 0072                __end_of_Timer1_ISR 118E        __end_of_function_ambiental 1000  
      ??_function_clave_Seguridad 0033                       sprintf@ccnt 0030                       sprintf@flag 002F  
                     sprintf@prec 0032                  ___lwdiv@dividend 0074                          ?___fladd 005F  
                        ?___fldiv 0045                          ?___flmul 002B                          ?___fltol 00BA  
                      ?__Umul8_16 0072                          ?___lwdiv 0072                          ?___lwmod 0020  
                       __pstrings 0800                         _eval_poly 0972                          _ADC_init 11D0  
                ___lwdiv@quotient 0076             LCD_String_xy@location 0021                          ?_sprintf 0024  
                        ?_strncmp 0072                          _LED_INIT 1178                          _LCD_Char 132C  
               interrupt_function 0004                          _LCD_Init 129C                         _pass_user 00E7  
             __end_of_keypad_init 119D                         clear_ram0 08DC                          _PIR1bits 000C  
                     _LCD_Command 12F6                        _ADCON0bits 001F                       __stringbase 080F  
                      _ADCON1bits 009F                 LED_COLOR_ON@green 0072               _function_eBloqueado 12C6  
                      ?_eval_poly 00A4              ?_function_eBloqueado 0070                         frexp@eptr 0028  
             _function_eMonitoreo 1551                     _var_sensor_ir 007A                       ??__Umul8_16 0074  
              __end_of__stringtab 0810                        sprintf@val 0033                          ___xxtofl 1675  
                 ___lwdiv@divisor 0072                   ___lwdiv@counter 0078              ConversionADC@channel 0072  
                        __ptext10 0B2E                          __ptext11 1362                          __ptext20 1675  
                        __ptext12 139E                          __ptext21 15D1                          __ptext13 0672  
                        __ptext30 129C                          __ptext22 14D9                          __ptext14 147D  
                        __ptext31 12F6                          __ptext23 0C22                          __ptext15 142D  
                        __ptext32 11D0                          __ptext24 124B                          __ptext16 0972  
                        __ptext33 117F                          __ptext25 1225                          __ptext17 0035  
                        __ptext26 132C                          __ptext18 1273                          __ptext27 119D  
                        __ptext19 037A                          __ptext28 1204                          __ptext29 1178  
            ?_function_eMonitoreo 0070                       _keypad_init 118E  __end_of_function_clave_Seguridad 1800  
           ??_function_eBloqueado 0022                        strncmp@len 0073                          _intentos 00E4  
                        _password 083E                  LED_COLOR_ON@blue 0073                        _LCD_String 1225  
           __end_of_keypad_getkey 0B2E                          log@coeff 081A                       ??_eval_poly 00AB  
                        init_ram0 11C1             ??_function_eMonitoreo 0037           _function_ambiental$1072 00CB  
         _function_ambiental$1073 00CF           _function_ambiental$1074 00D3                          intlevel1 0000  
                       sprintf@ap 002E                         sprintf@sp 0035                  ___lwmod@dividend 0022  
                   _ConversionADC 1204                         strncmp@s1 0077                         strncmp@s2 0072  
                       stringcode 080A                _function_ambiental 0DF1               ?_function_ambiental 0070  
          __Umul8_16@multiplicand 0072                          sprintf@c 0036                          sprintf@f 0024  
                 ___lwmod@divisor 0020                   ___lwmod@counter 0079                          stringdir 080A  
                        stringtab 0800                  _function_eAlarma 13E2                    keypad_getkey@i 0031  
                   ___fladd@signs 00A0                    ?_ConversionADC 0072              ??_function_ambiental 00C4  
                    ___fladd@aexp 00A1                      ___fladd@bexp 00A2              __Umul8_16@multiplier 0024  
                   ?_LED_COLOR_ON 0072                 __Umul8_16@product 0020  
